 _consultamarca.exe

 Timestamp is 62ef27de (Sat Aug  6 23:47:58 2022)

 Preferred load address is 00400000

 Start         Length     Name                   Class
 0001:00000000 000d2670H .text                   CODE                  
 0002:00000000 0001e440H .rdata                  DATA                  
 0002:0001e440 00000078H .CRT$XIC                DATA                  
 0003:00000000 00007910H .data                   DATA                  
 0003:00007910 00000078H .idata$2                DATA                  
 0003:00007988 00000014H .idata$3                DATA                  
 0003:0000799c 000002c4H .idata$4                DATA                  
 0003:00007c60 000002c4H .idata$5                DATA                  
 0003:00007f24 00000beeH .idata$6                DATA                  
 0003:00008b14 00007cc8H .bss                    DATA                  

  Address         Publics by Value              Rva+Base     Lib:Object

 0001:00000040       _HB_FUN_MAIN               00401040 f   consultaMarca.obj
 0001:000000b0       _HB_FUN_TIPCLIENTHTTP      004010b0 f   xhb:httpcln.obj
 0001:000007a0       _hb_hashNew                004017a0 f   xhb:hash.obj
 0001:00000890       _hb_hashAdd                00401890 f   xhb:hash.obj
 0001:00000f40       _hb_hashAddForward         00401f40 f   xhb:hash.obj
 0001:000011c0       _hb_hashScan               004021c0 f   xhb:hash.obj
 0001:000012a0       _hb_hashRemove             004022a0 f   xhb:hash.obj
 0001:00001540       _hb_hashSet                00402540 f   xhb:hash.obj
 0001:00001620       _hb_hashSetForward         00402620 f   xhb:hash.obj
 0001:00001710       _hb_hashGet                00402710 f   xhb:hash.obj
 0001:00001810       _hb_hashGetForward         00402810 f   xhb:hash.obj
 0001:00001910       _hb_hashPreallocate        00402910 f   xhb:hash.obj
 0001:000019f0       _hb_hashClone              004029f0 f   xhb:hash.obj
 0001:00001b40       _hb_hashMerge              00402b40 f   xhb:hash.obj
 0001:00001fd0       _hb_hashSetAACompatibility 00402fd0 f   xhb:hash.obj
 0001:00002080       _hb_hashReleaseBase        00403080 f   xhb:hash.obj
 0001:00002180       _hb_hashRelease            00403180 f   xhb:hash.obj
 0001:00002200       _hb_hashReleaseGarbage     00403200 f   xhb:hash.obj
 0001:000022b0       _hb_hashGetKeys            004032b0 f   xhb:hash.obj
 0001:000023a0       _hb_hashGetValues          004033a0 f   xhb:hash.obj
 0001:00002490       _hb_hashGetKeyAt           00403490 f   xhb:hash.obj
 0001:00002520       _hb_hashGetValueAt         00403520 f   xhb:hash.obj
 0001:000025a0       _HB_FUN_HASH               004035a0 f   xhb:hash.obj
 0001:000026c0       _HB_FUN_HGETPOS            004036c0 f   xhb:hash.obj
 0001:00002760       _HB_FUN_HAAGETPOS          00403760 f   xhb:hash.obj
 0001:00002840       _HB_FUN_HHASKEY            00403840 f   xhb:hash.obj
 0001:000028e0       _HB_FUN_HGET               004038e0 f   xhb:hash.obj
 0001:000029c0       _HB_FUN_HSET               004039c0 f   xhb:hash.obj
 0001:00002a60       _HB_FUN_HDEL               00403a60 f   xhb:hash.obj
 0001:00002b20       _HB_FUN_HGETKEYAT          00403b20 f   xhb:hash.obj
 0001:00002bf0       _HB_FUN_HAAGETKEYAT        00403bf0 f   xhb:hash.obj
 0001:00002d10       _HB_FUN_HGETVALUEAT        00403d10 f   xhb:hash.obj
 0001:00002de0       _HB_FUN_HAAGETVALUEAT      00403de0 f   xhb:hash.obj
 0001:00002f00       _HB_FUN_HSETVALUEAT        00403f00 f   xhb:hash.obj
 0001:00003010       _HB_FUN_HAASETVALUEAT      00404010 f   xhb:hash.obj
 0001:00003180       _HB_FUN_HGETPAIRAT         00404180 f   xhb:hash.obj
 0001:00003360       _HB_FUN_HDELAT             00404360 f   xhb:hash.obj
 0001:00003420       _HB_FUN_HAADELAT           00404420 f   xhb:hash.obj
 0001:00003530       _HB_FUN_HGETKEYS           00404530 f   xhb:hash.obj
 0001:000035a0       _HB_FUN_HGETVALUES         004045a0 f   xhb:hash.obj
 0001:00003610       _HB_FUN_HGETVAAPOS         00404610 f   xhb:hash.obj
 0001:000036c0       _HB_FUN_HFILL              004046c0 f   xhb:hash.obj
 0001:000037b0       _HB_FUN_HSCAN              004047b0 f   xhb:hash.obj
 0001:000038e0       _HB_FUN_HEVAL              004048e0 f   xhb:hash.obj
 0001:00003a00       _HB_FUN_HCLONE             00404a00 f   xhb:hash.obj
 0001:00003a70       _HB_FUN_HCOPY              00404a70 f   xhb:hash.obj
 0001:00003bb0       _HB_FUN_HMERGE             00404bb0 f   xhb:hash.obj
 0001:00003c60       _hb_hashSetCaseMatch       00404c60 f   xhb:hash.obj
 0001:00003ca0       _HB_FUN_HSETCASEMATCH      00404ca0 f   xhb:hash.obj
 0001:00003d30       _HB_FUN_HGETCASEMATCH      00404d30 f   xhb:hash.obj
 0001:00003d90       _HB_FUN_HSETAUTOADD        00404d90 f   xhb:hash.obj
 0001:00003e10       _HB_FUN_HGETAUTOADD        00404e10 f   xhb:hash.obj
 0001:00003e70       _HB_FUN_HSETPARTITION      00404e70 f   xhb:hash.obj
 0001:00004040       _HB_FUN_HGETPARTITION      00405040 f   xhb:hash.obj
 0001:00004140       _HB_FUN_HALLOCATE          00405140 f   xhb:hash.obj
 0001:000041d0       _HB_FUN_HSETAACOMPATIBILITY 004051d0 f   xhb:hash.obj
 0001:00004270       _HB_FUN_HGETAACOMPATIBILITY 00405270 f   xhb:hash.obj
 0001:000042d0       _HB_FUN_HAAGETREALPOS      004052d0 f   xhb:hash.obj
 0001:00004350       _hb_hashAAGetRealPos       00405350 f   xhb:hash.obj
 0001:00004390       _hb_hashLen                00405390 f   xhb:hash.obj
 0001:000043b0       _hb_hashGetCompatibility   004053b0 f   xhb:hash.obj
 0001:000043e0       _hb_hashId                 004053e0 f   xhb:hash.obj
 0001:00004400       _HB_FUN_HB_HASHID          00405400 f   xhb:hash.obj
 0001:00004430       _hb_conInit                00405430 f   xhb:console.obj
 0001:000044c0       _hb_conRelease             004054c0 f   xhb:console.obj
 0001:000044f0       _hb_conNewLine             004054f0 f   xhb:console.obj
 0001:00004500       _HB_FUN_HB_OSNEWLINE       00405500 f   xhb:console.obj
 0001:00004510       _hb_conOutStd              00405510 f   xhb:console.obj
 0001:00004550       _hb_conOutErr              00405550 f   xhb:console.obj
 0001:000045b0       _hb_conOutAlt              004055b0 f   xhb:console.obj
 0001:00004830       _HB_FUN_OUTSTD             00405830 f   xhb:console.obj
 0001:00004880       _HB_FUN_OUTERR             00405880 f   xhb:console.obj
 0001:000048d0       _HB_FUN_QQOUT              004058d0 f   xhb:console.obj
 0001:00004920       _HB_FUN_QOUT               00405920 f   xhb:console.obj
 0001:00004a30       _HB_FUN___EJECT            00405a30 f   xhb:console.obj
 0001:00004a90       _HB_FUN_PROW               00405a90 f   xhb:console.obj
 0001:00004ab0       _HB_FUN_PCOL               00405ab0 f   xhb:console.obj
 0001:00004cf0       _HB_FUN_DEVPOS             00405cf0 f   xhb:console.obj
 0001:00004d40       _HB_FUN_SETPRC             00405d40 f   xhb:console.obj
 0001:00004d90       _HB_FUN_DEVOUT             00405d90 f   xhb:console.obj
 0001:00004e40       _HB_FUN_DISPOUT            00405e40 f   xhb:console.obj
 0001:00004f10       _HB_FUN_DISPOUTAT          00405f10 f   xhb:console.obj
 0001:00005010       _HB_FUN_HB_DISPOUTAT       00406010 f   xhb:console.obj
 0001:000050e0       _HB_FUN_HB_GETSTDIN        004060e0 f   xhb:console.obj
 0001:00005100       _HB_FUN_HB_GETSTDOUT       00406100 f   xhb:console.obj
 0001:00005120       _HB_FUN_HB_GETSTDERR       00406120 f   xhb:console.obj
 0001:00005140       _HB_FUN_HBCONSOLELOCK      00406140 f   xhb:console.obj
 0001:00005150       _HB_FUN_HBCONSOLEUNLOCK    00406150 f   xhb:console.obj
 0001:00005160       _hb_vmAtInit               00406160 f   xhb:hvm.obj
 0001:000051b0       _hb_vmAtExit               004061b0 f   xhb:hvm.obj
 0001:00005250       _hb_vmIsMt                 00406250 f   xhb:hvm.obj
 0001:00005260       _hb_vmLock                 00406260 f   xhb:hvm.obj
 0001:00005270       _hb_vmUnlock               00406270 f   xhb:hvm.obj
 0001:000053c0       _hb_vmSymbolResolveDeferred 004063c0 f   xhb:hvm.obj
 0001:00005500       _hb_vmInit                 00406500 f   xhb:hvm.obj
 0001:00005810       _hb_vmReleaseLocalSymbols  00406810 f   xhb:hvm.obj
 0001:000058c0       _hb_vmQuit                 004068c0 f   xhb:hvm.obj
 0001:00005bd0       _hb_vmExecute              00406bd0 f   xhb:hvm.obj
 0001:00009f60       _HB_FUN_HB_VMEXECUTE       0040af60 f   xhb:hvm.obj
 0001:00013330       _hb_vmOperatorCall         00414330 f   xhb:hvm.obj
 0001:00013400       _hb_vmOperatorCallUnary    00414400 f   xhb:hvm.obj
 0001:00013700       _hb_vmDo                   00414700 f   xhb:hvm.obj
 0001:000139f0       _hb_vmSend                 004149f0 f   xhb:hvm.obj
 0001:000143e0       _hb_vmEvalBlock            004153e0 f   xhb:hvm.obj
 0001:00014410       _hb_vmEvalBlockV           00415410 f   xhb:hvm.obj
 0001:00014460       _hb_vmEvalBlockOrMacro     00415460 f   xhb:hvm.obj
 0001:00014540       _hb_vmDestroyBlockOrMacro  00415540 f   xhb:hvm.obj
 0001:00014580       _hb_vmFunction             00415580 f   xhb:hvm.obj
 0001:00015a90       _hb_vmPush                 00416a90 f   xhb:hvm.obj
 0001:00015ad0       _hb_vmPushState            00416ad0 f   xhb:hvm.obj
 0001:00015b30       _hb_vmPushNil              00416b30 f   xhb:hvm.obj
 0001:00015b70       _hb_vmPushLogical          00416b70 f   xhb:hvm.obj
 0001:00015bc0       _hb_vmPushNumber           00416bc0 f   xhb:hvm.obj
 0001:00015be0       _hb_vmPushNumType          00416be0 f   xhb:hvm.obj
 0001:00015ca0       _hb_vmPushNumInt           00416ca0 f   xhb:hvm.obj
 0001:00015d70       _hb_vmPushInteger          00416d70 f   xhb:hvm.obj
 0001:00015e20       _hb_vmPushLong             00416e20 f   xhb:hvm.obj
 0001:00015f70       _hb_vmPushDouble           00416f70 f   xhb:hvm.obj
 0001:000160a0       _hb_vmPushDate             004170a0 f   xhb:hvm.obj
 0001:000160e0       _hb_vmPushDateTime         004170e0 f   xhb:hvm.obj
 0001:00016120       _hb_vmPushPointer          00417120 f   xhb:hvm.obj
 0001:00016160       _hb_vmPushString           00417160 f   xhb:hvm.obj
 0001:000161a0       _hb_vmPushSymbol           004171a0 f   xhb:hvm.obj
 0001:00016210       _hb_vmPushDynSym           00417210 f   xhb:hvm.obj
 0001:00016230       _hb_vmPushEvalSym          00417230 f   xhb:hvm.obj
 0001:000169c0       _hb_vmPopState             004179c0 f   xhb:hvm.obj
 0001:00017360       _hb_vmGetRealFuncSym       00418360 f   xhb:hvm.obj
 0001:000173b0       _hb_vmFindModuleSymbols    004183b0 f   xhb:hvm.obj
 0001:000174e0       _hb_vmFreeSymbols          004184e0 f   xhb:hvm.obj
 0001:00017560       _hb_vmBeginSymbolGroup     00418560 f   xhb:hvm.obj
 0001:00017580       _hb_vmInitSymbolGroup      00418580 f   xhb:hvm.obj
 0001:00017700       _hb_vmExitSymbolGroup      00418700 f   xhb:hvm.obj
 0001:000177c0       _hb_vmRegisterSymbols      004187c0 f   xhb:hvm.obj
 0001:00017e20       _hb_vmProcessSymbols       00418e20 f   xhb:hvm.obj
 0001:00017ea0       _hb_vmProcessSysDllSymbols 00418ea0 f   xhb:hvm.obj
 0001:00017f20       _hb_vmProcessPrgDllSymbols 00418f20 f   xhb:hvm.obj
 0001:00017fb0       _hb_vmProcessExeUsesDllSymbols 00418fb0 f   xhb:hvm.obj
 0001:00018030       _hb_vmSymbols              00419030 f   xhb:hvm.obj
 0001:00018040       _hb_vmLastModule           00419040 f   xhb:hvm.obj
 0001:00018070       _hb_vmExplicitStartup      00419070 f   xhb:hvm.obj
 0001:000180f0       _hb_vmDoExitFunctions      004190f0 f   xhb:hvm.obj
 0001:00018270       _hb_vmFindModule           00419270 f   xhb:hvm.obj
 0001:000182a0       _hb_vmFindModuleByName     004192a0 f   xhb:hvm.obj
 0001:00018320       _hb_vmForceLink            00419320 f   xhb:hvm.obj
 0001:00018330       _HB_FUN_ERRORLEVEL         00419330 f   xhb:hvm.obj
 0001:00018370       _hb_vmRequestQuit          00419370 f   xhb:hvm.obj
 0001:00018390       _hb_vmRequestEndProc       00419390 f   xhb:hvm.obj
 0001:000183b0       _hb_vmRequestBreak         004193b0 f   xhb:hvm.obj
 0001:00018420       _hb_vmRequestCancel        00419420 f   xhb:hvm.obj
 0001:00018560       _hb_vmRequestQuery         00419560 f   xhb:hvm.obj
 0001:00018570       _hb_vmRequestReenter       00419570 f   xhb:hvm.obj
 0001:000185d0       _hb_vmRequestRestore       004195d0 f   xhb:hvm.obj
 0001:000186d0       _hb_vmRequestReset         004196d0 f   xhb:hvm.obj
 0001:000186f0       _hb_vmRequest              004196f0 f   xhb:hvm.obj
 0001:00018710       _hb_vmIsLocalRef           00419710 f   xhb:hvm.obj
 0001:000187e0       _hb_vmIsStaticRef          004197e0 f   xhb:hvm.obj
 0001:000187f0       _hb_vmRegisterGlobals      004197f0 f   xhb:hvm.obj
 0001:00018870       _hb_vmIsGlobalRef          00419870 f   xhb:hvm.obj
 0001:00018880       _HB_FUN___SETPROFILER      00419880 f   xhb:hvm.obj
 0001:00018890       _HB_FUN___TRACEPRGCALLS    00419890 f   xhb:hvm.obj
 0001:000188b0       _hb_vmPushBaseArray        004198b0 f   xhb:hvm.obj
 0001:00018950       _hb_vmPushItemRef          00419950 f   xhb:hvm.obj
 0001:000189a0       _HB_FUN_HB_FUNCPTR         004199a0 f   xhb:hvm.obj
 0001:00018a40       _HB_FUN_HB_QSELF           00419a40 f   xhb:hvm.obj
 0001:00018ab0       _HB_FUN___OPCOUNT          00419ab0 f   xhb:hvm.obj
 0001:00018ad0       _HB_FUN___OPGETPRF         00419ad0 f   xhb:hvm.obj
 0001:00018b00       _HB_FUN_HB_SAVEBLOCK       00419b00 f   xhb:hvm.obj
 0001:00018c20       _HB_FUN_HB_RESTOREBLOCK    00419c20 f   xhb:hvm.obj
 0001:00018f40       _HB_FUN_HB_GUIERRORMESSAGE 00419f40 f   xhb:hvm.obj
 0001:00018f50       _HB_FUN_HB_NOMOUSE         00419f50 f   xhb:hvm.obj
 0001:00018f60       _HB_FUN_HB_NOSTARTUPWINDOW 00419f60 f   xhb:hvm.obj
 0001:00018f70       _HB_FUN_HB_RESETWITH       00419f70 f   xhb:hvm.obj
 0001:00018fd0       _HB_FUN_HB_WITHOBJECTCOUNTER 00419fd0 f   xhb:hvm.obj
 0001:00018ff0       _HB_FUN___TEXTINTO         00419ff0 f   xhb:hvm.obj
 0001:00019030       _HB_FUN_HB_MULTITHREAD     0041a030 f   xhb:hvm.obj
 0001:00019050       _HB_FUN_HB_VMMODE          0041a050 f   xhb:hvm.obj
 0001:000190b0       _hb_xvmExitProc            0041a0b0 f   xhb:hvm.obj
 0001:000190d0       _hb_xvmSeqBegin            0041a0d0 f   xhb:hvm.obj
 0001:00019160       _hb_xvmSeqEnd              0041a160 f   xhb:hvm.obj
 0001:00019240       _hb_xvmSeqRecover          0041a240 f   xhb:hvm.obj
 0001:000192c0       _hb_xvmTryBegin            0041a2c0 f   xhb:hvm.obj
 0001:000192f0       _hb_xvmTryEnd              0041a2f0 f   xhb:hvm.obj
 0001:00019330       _hb_xvmTryEndFin           0041a330 f   xhb:hvm.obj
 0001:00019410       _hb_xvmTryRecover          0041a410 f   xhb:hvm.obj
 0001:00019450       _hb_xvmBeginFinally        0041a450 f   xhb:hvm.obj
 0001:00019470       _hb_xvmEndFinally          0041a470 f   xhb:hvm.obj
 0001:000194b0       _hb_xvmSetLine             0041a4b0 f   xhb:hvm.obj
 0001:000194e0       _hb_xvmBaseLine            0041a4e0 f   xhb:hvm.obj
 0001:00019520       _hb_xvmLineOffset          0041a520 f   xhb:hvm.obj
 0001:00019560       _hb_xvmClassSetModule      0041a560 f   xhb:hvm.obj
 0001:00019610       _hb_xvmIVarRef             0041a610 f   xhb:hvm.obj
 0001:00019970       _hb_xvmFrame               0041a970 f   xhb:hvm.obj
 0001:00019990       _hb_xvmSFrame              0041a990 f   xhb:hvm.obj
 0001:000199a0       _hb_xvmDo                  0041a9a0 f   xhb:hvm.obj
 0001:000199d0       _hb_xvmFunction            0041a9d0 f   xhb:hvm.obj
 0001:00019a50       _hb_xvmSend                0041aa50 f   xhb:hvm.obj
 0001:00019ad0       _hb_xvmSendWith            0041aad0 f   xhb:hvm.obj
 0001:00019b50       _hb_xvmRetValue            0041ab50 f   xhb:hvm.obj
 0001:00019bc0       _hb_xvmStatics             0041abc0 f   xhb:hvm.obj
 0001:00019be0       _hb_xvmParameter           0041abe0 f   xhb:hvm.obj
 0001:00019c00       _hb_xvmPushLocal           0041ac00 f   xhb:hvm.obj
 0001:00019c10       _hb_xvmPushLocalByRef      0041ac10 f   xhb:hvm.obj
 0001:00019c20       _hb_xvmPopLocal            0041ac20 f   xhb:hvm.obj
 0001:00019c30       _hb_xvmPushStatic          0041ac30 f   xhb:hvm.obj
 0001:00019c40       _hb_xvmPushStaticByRef     0041ac40 f   xhb:hvm.obj
 0001:00019c50       _hb_xvmPopStatic           0041ac50 f   xhb:hvm.obj
 0001:00019c60       _hb_xvmPushGlobal          0041ac60 f   xhb:hvm.obj
 0001:00019c80       _hb_xvmPushGlobalByRef     0041ac80 f   xhb:hvm.obj
 0001:00019cd0       _hb_xvmPopGlobal           0041acd0 f   xhb:hvm.obj
 0001:00019db0       _hb_xvmPushVariable        0041adb0 f   xhb:hvm.obj
 0001:00019de0       _hb_xvmPopVariable         0041ade0 f   xhb:hvm.obj
 0001:00019e70       _hb_xvmPushBlockShort      0041ae70 f   xhb:hvm.obj
 0001:00019e90       _hb_xvmPushBlock           0041ae90 f   xhb:hvm.obj
 0001:00019eb0       _hb_xvmPushSelf            0041aeb0 f   xhb:hvm.obj
 0001:00019ed0       _hb_xvmPopLogical          0041aed0 f   xhb:hvm.obj
 0001:00019f00       _hb_xvmPopAlias            0041af00 f   xhb:hvm.obj
 0001:00019f60       _hb_xvmSwapAlias           0041af60 f   xhb:hvm.obj
 0001:00019f90       _hb_xvmPushField           0041af90 f   xhb:hvm.obj
 0001:00019ff0       _hb_xvmPushAlias           0041aff0 f   xhb:hvm.obj
 0001:0001a020       _hb_xvmPushAliasedField    0041b020 f   xhb:hvm.obj
 0001:0001a050       _hb_xvmPushAliasedVar      0041b050 f   xhb:hvm.obj
 0001:0001a080       _hb_xvmPopField            0041b080 f   xhb:hvm.obj
 0001:0001a110       _hb_xvmPushMemvar          0041b110 f   xhb:hvm.obj
 0001:0001a170       _hb_xvmPushMemvarByRef     0041b170 f   xhb:hvm.obj
 0001:0001a1d0       _hb_xvmPopMemvar           0041b1d0 f   xhb:hvm.obj
 0001:0001a260       _hb_xvmPopAliasedField     0041b260 f   xhb:hvm.obj
 0001:0001a290       _hb_xvmPopAliasedVar       0041b290 f   xhb:hvm.obj
 0001:0001a2c0       _hb_xvmLocalAddInt         0041b2c0 f   xhb:hvm.obj
 0001:0001a300       _hb_xvmLocalAdd            0041b300 f   xhb:hvm.obj
 0001:0001a3d0       _hb_xvmEqual               0041b3d0 f   xhb:hvm.obj
 0001:0001a400       _hb_xvmAnd                 0041b400 f   xhb:hvm.obj
 0001:0001a430       _hb_xvmOr                  0041b430 f   xhb:hvm.obj
 0001:0001a460       _hb_xvmNot                 0041b460 f   xhb:hvm.obj
 0001:0001a490       _hb_xvmNegate              0041b490 f   xhb:hvm.obj
 0001:0001a4c0       _hb_xvmPower               0041b4c0 f   xhb:hvm.obj
 0001:0001a4f0       _hb_xvmDuplicate           0041b4f0 f   xhb:hvm.obj
 0001:0001a500       _hb_xvmDuplTwo             0041b500 f   xhb:hvm.obj
 0001:0001a510       _hb_xvmForTest             0041b510 f   xhb:hvm.obj
 0001:0001a540       _hb_xvmFuncPtr             0041b540 f   xhb:hvm.obj
 0001:0001a550       _hb_xvmNotEqual            0041b550 f   xhb:hvm.obj
 0001:0001a580       _hb_xvmLess                0041b580 f   xhb:hvm.obj
 0001:0001a5b0       _hb_xvmLessEqual           0041b5b0 f   xhb:hvm.obj
 0001:0001a5e0       _hb_xvmGreater             0041b5e0 f   xhb:hvm.obj
 0001:0001a610       _hb_xvmGreaterEqual        0041b610 f   xhb:hvm.obj
 0001:0001a640       _hb_xvmInstring            0041b640 f   xhb:hvm.obj
 0001:0001a670       _hb_xvmAddInt              0041b670 f   xhb:hvm.obj
 0001:0001a6b0       _hb_xvmPlus                0041b6b0 f   xhb:hvm.obj
 0001:0001a750       _hb_xvmMinus               0041b750 f   xhb:hvm.obj
 0001:0001a780       _hb_xvmMultByInt           0041b780 f   xhb:hvm.obj
 0001:0001a8f0       _hb_xvmMult                0041b8f0 f   xhb:hvm.obj
 0001:0001a920       _hb_xvmDivideByInt         0041b920 f   xhb:hvm.obj
 0001:0001ab40       _hb_xvmDivide              0041bb40 f   xhb:hvm.obj
 0001:0001ab70       _hb_xvmModulus             0041bb70 f   xhb:hvm.obj
 0001:0001aba0       _hb_xvmInc                 0041bba0 f   xhb:hvm.obj
 0001:0001abd0       _hb_xvmDec                 0041bbd0 f   xhb:hvm.obj
 0001:0001ac00       _hb_xvmBitAnd              0041bc00 f   xhb:hvm.obj
 0001:0001ac30       _hb_xvmBitOr               0041bc30 f   xhb:hvm.obj
 0001:0001ac60       _hb_xvmBitXor              0041bc60 f   xhb:hvm.obj
 0001:0001ac90       _hb_xvmBitShiftL           0041bc90 f   xhb:hvm.obj
 0001:0001acc0       _hb_xvmBitShiftR           0041bcc0 f   xhb:hvm.obj
 0001:0001acf0       _hb_xvmLeft                0041bcf0 f   xhb:hvm.obj
 0001:0001adf0       _hb_xvmRight               0041bdf0 f   xhb:hvm.obj
 0001:0001ae60       _hb_xvmLike                0041be60 f   xhb:hvm.obj
 0001:0001af10       _hb_xvmMatch               0041bf10 f   xhb:hvm.obj
 0001:0001afc0       _hb_xvmArrayDim            0041bfc0 f   xhb:hvm.obj
 0001:0001afd0       _hb_xvmArrayGen            0041bfd0 f   xhb:hvm.obj
 0001:0001aff0       _hb_xvmHashGen             0041bff0 f   xhb:hvm.obj
 0001:0001b6f0       _hb_xvmArrayPush           0041c6f0 f   xhb:hvm.obj
 0001:0001b720       _hb_xvmArrayPushRef        0041c720 f   xhb:hvm.obj
 0001:0001b750       _hb_xvmArrayItemPush       0041c750 f   xhb:hvm.obj
 0001:0001b780       _hb_xvmArrayPop            0041c780 f   xhb:hvm.obj
 0001:0001b7b0       _hb_xvmArrayPopPlus        0041c7b0 f   xhb:hvm.obj
 0001:0001b7e0       _hb_xvmArrayItemPop        0041c7e0 f   xhb:hvm.obj
 0001:0001b810       _hb_xvmPushDouble          0041c810 f   xhb:hvm.obj
 0001:0001b830       _hb_xvmPushLongLong        0041c830 f   xhb:hvm.obj
 0001:0001b850       _hb_xvmLocalName           0041c850 f   xhb:hvm.obj
 0001:0001b870       _hb_xvmStaticName          0041c870 f   xhb:hvm.obj
 0001:0001b890       _hb_xvmModuleName          0041c890 f   xhb:hvm.obj
 0001:0001b8a0       _hb_xvmMacroList           0041c8a0 f   xhb:hvm.obj
 0001:0001b8c0       _hb_xvmMacroListEnd        0041c8c0 f   xhb:hvm.obj
 0001:0001b8e0       _hb_xvmMacroPush           0041c8e0 f   xhb:hvm.obj
 0001:0001b920       _hb_xvmPushMacroRef        0041c920 f   xhb:hvm.obj
 0001:0001b960       _hb_xvmMacroPushIndex      0041c960 f   xhb:hvm.obj
 0001:0001ba90       _hb_xvmMacroPushArg        0041ca90 f   xhb:hvm.obj
 0001:0001baf0       _hb_xvmMacroPushList       0041caf0 f   xhb:hvm.obj
 0001:0001bb30       _hb_xvmMacroPushPare       0041cb30 f   xhb:hvm.obj
 0001:0001bb70       _hb_xvmMacroPushAliased    0041cb70 f   xhb:hvm.obj
 0001:0001bbb0       _hb_xvmMacroPop            0041cbb0 f   xhb:hvm.obj
 0001:0001bbf0       _hb_xvmMacroPopAliased     0041cbf0 f   xhb:hvm.obj
 0001:0001bc30       _hb_xvmMacroSymbol         0041cc30 f   xhb:hvm.obj
 0001:0001bc60       _hb_xvmMacroText           0041cc60 f   xhb:hvm.obj
 0001:0001bc90       _hb_xvmLocalSetInt         0041cc90 f   xhb:hvm.obj
 0001:0001bd20       _hb_xvmLocalSetStr         0041cd20 f   xhb:hvm.obj
 0001:0001bdc0       _hb_xvmSwitchCase          0041cdc0 f   xhb:hvm.obj
 0001:0001bed0       _hb_xvmPushWith            0041ced0 f   xhb:hvm.obj
 0001:0001bf00       _hb_xvmWithObject          0041cf00 f   xhb:hvm.obj
 0001:0001c000       _hb_xvmEndWithObject       0041d000 f   xhb:hvm.obj
 0001:0001c050       _hb_xvmEnumIndex           0041d050 f   xhb:hvm.obj
 0001:0001c0c0       _hb_xvmForEach             0041d0c0 f   xhb:hvm.obj
 0001:0001c2f0       _hb_xvmEnumerate           0041d2f0 f   xhb:hvm.obj
 0001:0001c4c0       _hb_xvmEndEnumerate        0041d4c0 f   xhb:hvm.obj
 0001:0001c5b0       _hb_xvmLocalSetStringHidden 0041d5b0 f   xhb:hvm.obj
 0001:0001c670       _hb_xvmPushStringHidden    0041d670 f   xhb:hvm.obj
 0001:0001c6a0       _hb_xvmDivert              0041d6a0 f   xhb:hvm.obj
 0001:0001c6b0       _hb_vmRequestDebug         0041d6b0 f   xhb:hvm.obj
 0001:0001c6c0       _hb_dbg_InvokeDebug        0041d6c0 f   xhb:hvm.obj
 0001:0001c6e0       _hb_dbg_SetEntry           0041d6e0 f   xhb:hvm.obj
 0001:0001c700       _hb_dbg_vmVarSGet          0041d700 f   xhb:hvm.obj
 0001:0001c720       _hb_dbg_ProcLevel          0041d720 f   xhb:hvm.obj
 0001:0001c730       _HB_FUN_HB_DBG_INVOKEDEBUG 0041d730 f   xhb:hvm.obj
 0001:0001c790       _HB_FUN_HB_DBG_VMVARSLIST  0041d790 f   xhb:hvm.obj
 0001:0001c7c0       _HB_FUN_HB_DBG_VMVARSLEN   0041d7c0 f   xhb:hvm.obj
 0001:0001c7e0       _HB_FUN_HB_DBG_VMVARSGET   0041d7e0 f   xhb:hvm.obj
 0001:0001c820       _HB_FUN_HB_DBG_VMVARSSET   0041d820 f   xhb:hvm.obj
 0001:0001c870       _HB_FUN_HB_DBG_PROCLEVEL   0041d870 f   xhb:hvm.obj
 0001:0001c890       _hb_dbg_vmVarGCount        0041d890 f   xhb:hvm.obj
 0001:0001c8a0       _hb_dbg_vmVarGGet          0041d8a0 f   xhb:hvm.obj
 0001:0001c8c0       _HB_FUN_HB_DBG_VMVARGLIST  0041d8c0 f   xhb:hvm.obj
 0001:0001c8f0       _HB_FUN_HB_DBG_VMVARGGET   0041d8f0 f   xhb:hvm.obj
 0001:0001c930       _HB_FUN_HB_DBG_VMVARGSET   0041d930 f   xhb:hvm.obj
 0001:0001c980       _HB_FUN___VMVARGLIST       0041d980 f   xhb:hvm.obj
 0001:0001c990       _HB_FUN___VMVARSLIST       0041d990 f   xhb:hvm.obj
 0001:0001c9a0       _HB_FUN___VMVARSLEN        0041d9a0 f   xhb:hvm.obj
 0001:0001c9b0       _HB_FUN___VMVARSGET        0041d9b0 f   xhb:hvm.obj
 0001:0001c9c0       _HB_FUN___VMVARSSET        0041d9c0 f   xhb:hvm.obj
 0001:0001cb30       _hb_clsInit                0041db30 f   xhb:classes.obj
 0001:0001cca0       _hb_clsDisableDestructors  0041dca0 f   xhb:classes.obj
 0001:0001ccb0       _hb_clsDestructorsAllowed  0041dcb0 f   xhb:classes.obj
 0001:0001ccc0       _hb_clsClearAllClassDatas  0041dcc0 f   xhb:classes.obj
 0001:0001cd00       _hb_clsClearAll            0041dd00 f   xhb:classes.obj
 0001:0001cd40       _hb_clsReleaseAll          0041dd40 f   xhb:classes.obj
 0001:0001cdf0       _hb_clsIsClassRef          0041ddf0 f   xhb:classes.obj
 0001:0001d330       _hb_clsIsParent            0041e330 f   xhb:classes.obj
 0001:0001d3b0       _hb_objGetClsName          0041e3b0 f   xhb:classes.obj
 0001:0001d4d0       _hb_clsName                0041e4d0 f   xhb:classes.obj
 0001:0001d500       _hb_objGetRealCls          0041e500 f   xhb:classes.obj
 0001:0001d590       _hb_objGetRealClsName      0041e590 f   xhb:classes.obj
 0001:0001d6d0       _hb_objGetOpOver           0041e6d0 f   xhb:classes.obj
 0001:0001d700       _hb_objGetClsSymbol        0041e700 f   xhb:classes.obj
 0001:0001d910       _hb_objGetMethod           0041e910 f   xhb:classes.obj
 0001:0001d960       _hb_objGetMthd             0041e960 f   xhb:classes.obj
 0001:0001dbe0       _hb_clsHasMsg              0041ebe0 f   xhb:classes.obj
 0001:0001dc70       _hb_objGetpMthd            0041ec70 f   xhb:classes.obj
 0001:0001dcc0       _hb_objGetpMethod          0041ecc0 f   xhb:classes.obj
 0001:0001dcf0       _hb_objHasMsg              0041ecf0 f   xhb:classes.obj
 0001:0001dd10       _hb_objHasMessage          0041ed10 f   xhb:classes.obj
 0001:0001ecc0       _HB_FUN___CLSADDMSG        0041fcc0 f   xhb:classes.obj
 0001:0001eee0       ___cls_CntMethods          0041fee0 f   xhb:classes.obj
 0001:0001fbd0       _HB_FUN___CLSNEW           00420bd0 f   xhb:classes.obj
 0001:0001fd50       _hb_clsDeactiveClass       00420d50 f   xhb:classes.obj
 0001:0001fdc0       _HB_FUN___CLSISACTIVE      00420dc0 f   xhb:classes.obj
 0001:0001fe20       _HB_FUN___CLSACTIVE        00420e20 f   xhb:classes.obj
 0001:0001feb0       _HB_FUN___CLSSETMODULE     00420eb0 f   xhb:classes.obj
 0001:0001ff30       _HB_FUN___CLSDELMSG        00420f30 f   xhb:classes.obj
 0001:00020090       _HB_FUN___CLSINST          00421090 f   xhb:classes.obj
 0001:000200b0       _hb_clsInst                004210b0 f   xhb:classes.obj
 0001:00020510       _HB_FUN___CLSMODMSG        00421510 f   xhb:classes.obj
 0001:00020830       _HB_FUN___CLSMSGASSIGNED   00421830 f   xhb:classes.obj
 0001:00020900       _HB_FUN___OBJGETCLSNAME    00421900 f   xhb:classes.obj
 0001:00020930       _HB_FUN___CLSHASMSG        00421930 f   xhb:classes.obj
 0001:00020a00       _HB_FUN___OBJHASMSG        00421a00 f   xhb:classes.obj
 0001:00020aa0       _hb_objClone               00421aa0 f   xhb:classes.obj
 0001:00020ba0       _HB_FUN___OBJCLONE         00421ba0 f   xhb:classes.obj
 0001:00020bf0       _hb_objSendMsg             00421bf0 f   xhb:classes.obj
 0001:00020c80       _hb_objSendSymbol          00421c80 f   xhb:classes.obj
 0001:00020cd0       _hb_objSendMessage         00421cd0 f   xhb:classes.obj
 0001:00020d20       _HB_FUN___OBJSENDMSG       00421d20 f   xhb:classes.obj
 0001:00020e00       _HB_FUN___OBJSENDMSGCASE   00421e00 f   xhb:classes.obj
 0001:00020ee0       _HB_FUN___CLSINSTSUPER     00421ee0 f   xhb:classes.obj
 0001:00021020       _HB_FUN___CLS_CNTCLSDATA   00422020 f   xhb:classes.obj
 0001:00021080       _HB_FUN___CLS_CNTSHRDATA   00422080 f   xhb:classes.obj
 0001:000210c0       _HB_FUN___CLS_CNTDATA      004220c0 f   xhb:classes.obj
 0001:00021110       _HB_FUN___CLS_DECDATA      00422110 f   xhb:classes.obj
 0001:00021160       _HB_FUN___CLS_INCDATA      00422160 f   xhb:classes.obj
 0001:000211e0       _HB_FUN___CLASSNAME        004221e0 f   xhb:classes.obj
 0001:00021240       _HB_FUN___CLASSSEL         00422240 f   xhb:classes.obj
 0001:000212f0       _HB_FUN___GETMEMBERS       004222f0 f   xhb:classes.obj
 0001:00021510       _HB_FUN___GETMESSAGE       00422510 f   xhb:classes.obj
 0001:00021540       _HB_FUN___CLSPARENT        00422540 f   xhb:classes.obj
 0001:00021590       _HB_FUN___SENDER           00422590 f   xhb:classes.obj
 0001:00021610       _hb_objClassH              00422610 f   xhb:classes.obj
 0001:00021730       _HB_FUN___CLASSH           00422730 f   xhb:classes.obj
 0001:00021760       _HB_FUN___EVAL             00422760 f   xhb:classes.obj
 0001:00021e60       _hb___msgGetClsData        00422e60 f   xhb:classes.obj
 0001:00021eb0       _hb___msgSetClsData        00422eb0 f   xhb:classes.obj
 0001:00021f10       _hb___msgGetShrData        00422f10 f   xhb:classes.obj
 0001:00021f60       _hb___msgSetShrData        00422f60 f   xhb:classes.obj
 0001:00021fd0       _hb___msgGetData           00422fd0 f   xhb:classes.obj
 0001:00022020       _hb___msgSetData           00423020 f   xhb:classes.obj
 0001:00022170       _hb_clsClassesArray        00423170 f   xhb:classes.obj
 0001:00022180       _hb_clsMaxClasses          00423180 f   xhb:classes.obj
 0001:00022190       _HB_FUN___GETMSGPRF        00423190 f   xhb:classes.obj
 0001:000221c0       _hb_mthAddTime             004231c0 f   xhb:classes.obj
 0001:000221d0       _hb_clsFinalize            004231d0 f   xhb:classes.obj
 0001:00022390       _HB_FUN___CLSGETPROPERTIES 00423390 f   xhb:classes.obj
 0001:00022450       _HB_FUN___CLSGETPROPERTIESANDVALUES 00423450 f   xhb:classes.obj
 0001:00022560       _HB_FUN___CLSGETIVARNAMESANDVALUES 00423560 f   xhb:classes.obj
 0001:000226b0       _hb_clsSymbolFromFunction  004236b0 f   xhb:classes.obj
 0001:00022720       _HB_FUN_HB_OBJMSGPTR       00423720 f   xhb:classes.obj
 0001:000227c0       _hb_clsGetHandleFromName   004237c0 f   xhb:classes.obj
 0001:00022820       _HB_FUN___CLSGETHANDLEFROMNAME 00423820 f   xhb:classes.obj
 0001:00022920       _hb_clsSetModule           00423920 f   xhb:classes.obj
 0001:00022960       _HB_FUN___SETCLASSSCOPE    00423960 f   xhb:classes.obj
 0001:000229b0       _hb_clsSetScope            004239b0 f   xhb:classes.obj
 0001:000229d0       _HB_FUN___SETCLASSAUTOINIT 004239d0 f   xhb:classes.obj
 0001:00022b60       _HB_FUN___CLSADDFRIEND     00423b60 f   xhb:classes.obj
 0001:00022ba0       _HB_FUN___CLSFRIENDLY      00423ba0 f   xhb:classes.obj
 0001:00022cc0       _HB_FUN___CLSASSOCTYPE     00423cc0 f   xhb:classes.obj
 0001:00022e90       _HB_FUN___CLSCNTCLASSES    00423e90 f   xhb:classes.obj
 0001:00022eb0       _HB_FUN___CLSINSTNAME      00423eb0 f   xhb:classes.obj
 0001:00022f90       _hb_clsCreate              00423f90 f   xhb:classes.obj
 0001:00022fc0       _hb_clsAdd                 00423fc0 f   xhb:classes.obj
 0001:00022ff0       _hb_clsAddData             00423ff0 f   xhb:classes.obj
 0001:00023020       _hb_clsAssociate           00424020 f   xhb:classes.obj
 0001:00023040       _hb_clsAddDataInit         00424040 f   xhb:classes.obj
 0001:000230b0       _HB_FUN_HBCLASS            004240b0 f   xhb:tclass.obj
 0001:000233e0       _HB_FUN_TIPCLIENT          004243e0 f   xhb:client.obj
 0001:00023760       _HB_FUN_ARRAY              00424760 f   xhb:arrayshb.obj
 0001:00023800       _HB_FUN_AADD               00424800 f   xhb:arrayshb.obj
 0001:00023940       _HB_FUN_HB_ARRAYID         00424940 f   xhb:arrayshb.obj
 0001:00023970       _HB_FUN_HB_THISARRAY       00424970 f   xhb:arrayshb.obj
 0001:000239d0       _HB_FUN_ASIZE              004249d0 f   xhb:arrayshb.obj
 0001:00023ac0       _HB_FUN_ASIZEALLOC         00424ac0 f   xhb:arrayshb.obj
 0001:00023b30       _HB_FUN_ALENALLOC          00424b30 f   xhb:arrayshb.obj
 0001:00023b60       _HB_FUN_ATAIL              00424b60 f   xhb:arrayshb.obj
 0001:00023b90       _HB_FUN_AINS               00424b90 f   xhb:arrayshb.obj
 0001:00023c90       _HB_FUN_HB_AINS            00424c90 f   xhb:arrayshb.obj
 0001:00023ca0       _HB_FUN_ADEL               00424ca0 f   xhb:arrayshb.obj
 0001:00023d80       _HB_FUN_AFILL              00424d80 f   xhb:arrayshb.obj
 0001:00023f90       _HB_FUN_ASCAN              00424f90 f   xhb:arrayshb.obj
 0001:00024070       _HB_FUN_AEVAL              00425070 f   xhb:arrayshb.obj
 0001:000241c0       _HB_FUN_ACOPY              004251c0 f   xhb:arrayshb.obj
 0001:000242e0       _HB_FUN_ACLONE             004252e0 f   xhb:arrayshb.obj
 0001:00024320       _HB_FUN_HB_APARAMS         00425320 f   xhb:arrayshb.obj
 0001:00024380       _HB_FUN_HB_AEXPRESSIONS    00425380 f   xhb:arrayshb.obj
 0001:00024630       _SizeOfCStructure          00425630 f   xhb:arrayshb.obj
 0001:00024970       _HB_FUN_HB_SIZEOFCSTRUCTURE 00425970 f   xhb:arrayshb.obj
 0001:00024a10       _ArrayToStructure          00425a10 f   xhb:arrayshb.obj
 0001:00026670       _HB_FUN_HB_ARRAYTOSTRUCTURE 00427670 f   xhb:arrayshb.obj
 0001:00026740       _StructureToArray          00427740 f   xhb:arrayshb.obj
 0001:00027050       _HB_FUN_HB_STRUCTURETOARRAY 00428050 f   xhb:arrayshb.obj
 0001:00027160       _HB_FUN_RASCAN             00428160 f   xhb:arrayshb.obj
 0001:000275f0       _HB_FUN_ASPLICE            004285f0 f   xhb:arrayshb.obj
 0001:00027960       _HB_FUN_AREMOVE            00428960 f   xhb:arrayshb.obj
 0001:00027970       _HB_FUN_AMERGE             00428970 f   xhb:arrayshb.obj
 0001:00027ac0       _HB_FUN_PCOUNT             00428ac0 f   xhb:pcount.obj
 0001:00027af0       _HB_FUN_FOPEN              00428af0 f   xhb:philes.obj
 0001:00027b90       _HB_FUN_FCREATE            00428b90 f   xhb:philes.obj
 0001:00027c20       _HB_FUN_HB_FCREATE         00428c20 f   xhb:philes.obj
 0001:00027ce0       _HB_FUN_FREAD              00428ce0 f   xhb:philes.obj
 0001:00027dd0       _HB_FUN_FWRITE             00428dd0 f   xhb:philes.obj
 0001:00027ea0       _HB_FUN_FERROR             00428ea0 f   xhb:philes.obj
 0001:00027ed0       _HB_FUN_FCLOSE             00428ed0 f   xhb:philes.obj
 0001:00027f40       _HB_FUN_FERASE             00428f40 f   xhb:philes.obj
 0001:00027fa0       _HB_FUN_FRENAME            00428fa0 f   xhb:philes.obj
 0001:00028020       _HB_FUN_FSEEK              00429020 f   xhb:philes.obj
 0001:000280e0       _HB_FUN_FREADSTR           004290e0 f   xhb:philes.obj
 0001:00028190       _HB_FUN_CURDIR             00429190 f   xhb:philes.obj
 0001:00028210       _HB_FUN_HB_F_EOF           00429210 f   xhb:philes.obj
 0001:00028260       _HB_FUN_CURDIRX            00429260 f   xhb:philes.obj
 0001:00028330       _HB_FUN_HB_FCOMMIT         00429330 f   xhb:philes.obj
 0001:00028370       _HB_FUN_HB_FLOCK           00429370 f   xhb:philes.obj
 0001:00028440       _HB_FUN_HB_FUNLOCK         00429440 f   xhb:philes.obj
 0001:000284f0       _HB_FUN_HB_OSERROR         004294f0 f   xhb:philes.obj
 0001:00028510       _HB_FUN_HB_OSPATHSEPARATOR 00429510 f   xhb:philes.obj
 0001:00028520       _HB_FUN_HB_OSPATHLISTSEPARATOR 00429520 f   xhb:philes.obj
 0001:00028530       _HB_FUN_HB_OSPATHDELIMITERS 00429530 f   xhb:philes.obj
 0001:00028540       _HB_FUN_HB_OSDRIVESEPARATOR 00429540 f   xhb:philes.obj
 0001:00028550       _HB_FUN_HB_OSFILEMASK      00429550 f   xhb:philes.obj
 0001:00028560       _HB_FUN_HB_OPENPROCESS     00429560 f   xhb:philes.obj
 0001:000288a0       _HB_FUN_HB_CLOSEPROCESS    004298a0 f   xhb:philes.obj
 0001:00028950       _HB_FUN_HB_PROCESSVALUE    00429950 f   xhb:philes.obj
 0001:00028a00       _HB_FUN_FILE               00429a00 f   xhb:filehb.obj
 0001:00028a30       _HB_FUN_ISDIRECTORY        00429a30 f   xhb:filehb.obj
 0001:00028a60       _hb_strLTrim               00429a60 f   xhb:trim.obj
 0001:00028aa0       _hb_strRTrimLen            00429aa0 f   xhb:trim.obj
 0001:00028b00       _HB_FUN_LTRIM              00429b00 f   xhb:trim.obj
 0001:00028b90       _HB_FUN_RTRIM              00429b90 f   xhb:trim.obj
 0001:00028c40       _HB_FUN_TRIM               00429c40 f   xhb:trim.obj
 0001:00028c50       _HB_FUN_ALLTRIM            00429c50 f   xhb:trim.obj
 0001:00028d10       _HB_FUN_STR                00429d10 f   xhb:str.obj
 0001:00028f40       _HB_FUN_INT                00429f40 f   xhb:round.obj
 0001:00028fe0       _HB_FUN_ROUND              00429fe0 f   xhb:round.obj
 0001:000290b0       _HB_FUN_VALTYPE            0042a0b0 f   xhb:valtype.obj
 0001:000290e0       _HB_FUN_ISNULL             0042a0e0 f   xhb:valtype.obj
 0001:00029120       _HB_FUN_SETNULL            0042a120 f   xhb:valtype.obj
 0001:00029150       _HB_FUN_HB_ISBYREF         0042a150 f   xhb:valtype.obj
 0001:000291b0       _HB_FUN_HB_ISNIL           0042a1b0 f   xhb:valtype.obj
 0001:000291f0       _HB_FUN_HB_ISNUMERIC       0042a1f0 f   xhb:valtype.obj
 0001:00029220       _HB_FUN_HB_ISLOGICAL       0042a220 f   xhb:valtype.obj
 0001:00029250       _HB_FUN_HB_ISDATE          0042a250 f   xhb:valtype.obj
 0001:00029280       _HB_FUN_HB_ISDATETIME      0042a280 f   xhb:valtype.obj
 0001:000292b0       _HB_FUN_HB_ISTIMESTAMP     0042a2b0 f   xhb:valtype.obj
 0001:000292e0       _HB_FUN_HB_ISBLOCK         0042a2e0 f   xhb:valtype.obj
 0001:00029310       _HB_FUN_HB_ISPOINTER       0042a310 f   xhb:valtype.obj
 0001:00029340       _HB_FUN_HB_ISSTRING        0042a340 f   xhb:valtype.obj
 0001:00029370       _HB_FUN_HB_ISCHAR          0042a370 f   xhb:valtype.obj
 0001:000293a0       _HB_FUN_HB_ISMEMO          0042a3a0 f   xhb:valtype.obj
 0001:000293d0       _HB_FUN_HB_ISARRAY         0042a3d0 f   xhb:valtype.obj
 0001:00029420       _HB_FUN_HB_ISOBJECT        0042a420 f   xhb:valtype.obj
 0001:00029440       _HB_FUN_HB_ISHASH          0042a440 f   xhb:valtype.obj
 0001:00029470       _HB_FUN_HB_ISNULL          0042a470 f   xhb:valtype.obj
 0001:00029530       _HB_FUN_LEN                0042a530 f   xhb:len.obj
 0001:000295f0       _HB_FUN_CSTR               0042a5f0 f   xhb:cstr.obj
 0001:00029610       _HB_FUN_CSTRTOVAL          0042a610 f   xhb:cstr.obj
 0001:00029630       _HB_FUN_STRINGTOLITERAL    0042a630 f   xhb:cstr.obj
 0001:00029650       _HB_FUN_VALTOPRG           0042a650 f   xhb:cstr.obj
 0001:00029670       _HB_FUN_VALTOPRGEXP        0042a670 f   xhb:cstr.obj
 0001:00029690       _HB_FUN_PRGEXPTOVAL        0042a690 f   xhb:cstr.obj
 0001:000296b0       _HB_FUN_VALTOARRAY         0042a6b0 f   xhb:cstr.obj
 0001:000296d0       _HB_FUN_VALTOBLOCK         0042a6d0 f   xhb:cstr.obj
 0001:000296f0       _HB_FUN_VALTOCHARACTER     0042a6f0 f   xhb:cstr.obj
 0001:00029710       _HB_FUN_VALTODATE          0042a710 f   xhb:cstr.obj
 0001:00029730       _HB_FUN_VALTOHASH          0042a730 f   xhb:cstr.obj
 0001:00029750       _HB_FUN_VALTOLOGICAL       0042a750 f   xhb:cstr.obj
 0001:00029770       _HB_FUN_VALTONUMBER        0042a770 f   xhb:cstr.obj
 0001:00029790       _HB_FUN_VALTOOBJECT        0042a790 f   xhb:cstr.obj
 0001:000297b0       _HB_FUN_VALTOTYPE          0042a7b0 f   xhb:cstr.obj
 0001:00029810       _HB_FUN_TIPENCODERURL      0042a810 f   xhb:encurl.obj
 0001:00029870       _HB_FUN_TIPENCODERURL_ENCODE 0042a870 f   xhb:encurl.obj
 0001:00029a40       _HB_FUN_TIPENCODERURL_DECODE 0042aa40 f   xhb:encurl.obj
 0001:00029bb0       _HB_FUN_LEFT               0042abb0 f   xhb:left.obj
 0001:00029cd0       _HB_FUN_ALERT              0042acd0 f   xhb:alert.obj
 0001:00029cf0       _HB_FUN___NONOALERT        0042acf0 f   xhb:alert.obj
 0001:00029d70       _HB_FUN_TIPENCODERBASE64   0042ad70 f   xhb:encb64.obj
 0001:00029dd0       _HB_FUN_TIPENCODERBASE64_ENCODE 0042add0 f   xhb:encb64.obj
 0001:0002a0b0       _HB_FUN_TIPENCODERBASE64_DECODE 0042b0b0 f   xhb:encb64.obj
 0001:0002a290       _HB_FUN_EMPTY              0042b290 f   xhb:empty.obj
 0001:0002a4f0       _hb_getregex               0042b4f0 f   xhb:regex.obj
 0001:0002a5d0       _hb_freeregex              0042b5d0 f   xhb:regex.obj
 0001:0002a5f0       _hb_regexCompile           0042b5f0 f   xhb:regex.obj
 0001:0002a680       _hb_regexGet               0042b680 f   xhb:regex.obj
 0001:0002a740       _hb_regexFree              0042b740 f   xhb:regex.obj
 0001:0002a780       _hb_regexMatch             0042b780 f   xhb:regex.obj
 0001:0002a800       _hb_regex                  0042b800 f   xhb:regex.obj
 0001:0002b290       _Wild2RegEx                0042c290 f   xhb:regex.obj
 0001:0002b3c0       _Mask2RegEx                0042c3c0 f   xhb:regex.obj
 0001:0002b490       _HB_FUN_HB_ATX             0042c490 f   xhb:regex.obj
 0001:0002b760       _HB_FUN_WILD2REGEX         0042c760 f   xhb:regex.obj
 0001:0002b7c0       _HB_FUN_HB_REGEX           0042c7c0 f   xhb:regex.obj
 0001:0002b7e0       _HB_FUN_HB_REGEXATX        0042c7e0 f   xhb:regex.obj
 0001:0002b800       _HB_FUN_HB_REGEXALL        0042c800 f   xhb:regex.obj
 0001:0002b820       _HB_FUN_HB_REGEXMATCH      0042c820 f   xhb:regex.obj
 0001:0002b870       _HB_FUN_HB_REGEXSPLIT      0042c870 f   xhb:regex.obj
 0001:0002b890       _HB_FUN_HB_REGEXCOMP       0042c890 f   xhb:regex.obj
 0001:0002ba20       _HB_FUN_HB_PCRE_VERSION    0042ca20 f   xhb:regex.obj
 0001:0002ba40       _HB_FUN_HB_ISREGEXSTRING   0042ca40 f   xhb:regex.obj
 0001:0002baa0       _HB_FUN_HB_FORCELINK_PCREPOS 0042caa0 f   xhb:regex.obj
 0001:0002bab0       _HB_FUN_VAL                0042cab0 f   xhb:val.obj
 0001:0002bb60       _hb_strLower               0042cb60 f   xhb:strcase.obj
 0001:0002bbe0       _hb_strLowerCopy           0042cbe0 f   xhb:strcase.obj
 0001:0002bc80       _hb_strUpperCopy           0042cc80 f   xhb:strcase.obj
 0001:0002bd20       _hb_strUpper               0042cd20 f   xhb:strcase.obj
 0001:0002bda0       _hb_charLower              0042cda0 f   xhb:strcase.obj
 0001:0002bdf0       _hb_charUpper              0042cdf0 f   xhb:strcase.obj
 0001:0002be40       _HB_FUN_LOWER              0042ce40 f   xhb:strcase.obj
 0001:0002beb0       _HB_FUN_UPPER              0042ceb0 f   xhb:strcase.obj
 0001:0002bf20       _HB_FUN_SUBSTR             0042cf20 f   xhb:substr.obj
 0001:0002c090       _HB_FUN_AT                 0042d090 f   xhb:at.obj
 0001:0002c1f0       _hb_AtSkipStrings          0042d1f0 f   xhb:at.obj
 0001:0002c3a0       _HB_FUN_ATSKIPSTRINGS      0042d3a0 f   xhb:at.obj
 0001:0002c430       _hb_hextonum               0042d430 f   xhb:hbhex2n.obj
 0001:0002c520       _HB_FUN_NUMTOHEX           0042d520 f   xhb:hbhex2n.obj
 0001:0002c6c0       _HB_FUN_HEXTONUM           0042d6c0 f   xhb:hbhex2n.obj
 0001:0002c720       _HB_FUN_STRTOHEX           0042d720 f   xhb:hbhex2n.obj
 0001:0002c8b0       _HB_FUN_HEXTOSTR           0042d8b0 f   xhb:hbhex2n.obj
 0001:0002c9d0       _HB_FUN_RIGHT              0042d9d0 f   xhb:right.obj
 0001:0002cf60       _hb_arraySort              0042df60 f   xhb:asort.obj
 0001:0002d020       _HB_FUN_ASORT              0042e020 f   xhb:asort.obj
 0001:0002d0c0       _HB_FUN_REPLICATE          0042e0c0 f   xhb:replic.obj
 0001:0002d220       _HB_FUN_SPACE              0042e220 f   xhb:space.obj
 0001:0002d2b0       _HB_FUN_HB_RANDOM          0042e2b0 f   xhb:hbrandom.obj
 0001:0002d370       _HB_FUN_HB_RANDOMINT       0042e370 f   xhb:hbrandom.obj
 0001:0002d4a0       _HB_FUN_HB_RANDOMSEED      0042e4a0 f   xhb:hbrandom.obj
 0001:0002d4e0       _hb_random_num             0042e4e0 f   xhb:hbrandom.obj
 0001:0002d540       _HB_FUN_STRTRAN            0042e540 f   xhb:strtran.obj
 0001:0002d8a0       _HB_FUN_RAT                0042e8a0 f   xhb:rat.obj
 0001:0002d9b0       _hb_itemNew                0042e9b0 f   xhb:itemapi.obj
 0001:0002d9d0       _hb_itemParam              0042e9d0 f   xhb:itemapi.obj
 0001:0002d9f0       _hb_itemParamPtr           0042e9f0 f   xhb:itemapi.obj
 0001:0002da10       _hb_itemPCount             0042ea10 f   xhb:itemapi.obj
 0001:0002da30       _hb_itemRelease            0042ea30 f   xhb:itemapi.obj
 0001:0002da50       _hb_itemArrayNew           0042ea50 f   xhb:itemapi.obj
 0001:0002da70       _hb_itemArrayGet           0042ea70 f   xhb:itemapi.obj
 0001:0002daa0       _hb_itemArrayPut           0042eaa0 f   xhb:itemapi.obj
 0001:0002dad0       _hb_itemSetCMemo           0042ead0 f   xhb:itemapi.obj
 0001:0002daf0       _hb_itemGetC               0042eaf0 f   xhb:itemapi.obj
 0001:0002db40       _hb_itemGetCPtr            0042eb40 f   xhb:itemapi.obj
 0001:0002db70       _hb_itemGetCLen            0042eb70 f   xhb:itemapi.obj
 0001:0002dba0       _hb_itemCopyC              0042eba0 f   xhb:itemapi.obj
 0001:0002dbf0       _hb_itemFreeC              0042ebf0 f   xhb:itemapi.obj
 0001:0002dc10       _hb_itemGetDS              0042ec10 f   xhb:itemapi.obj
 0001:0002dc50       _hb_itemGetDTS             0042ec50 f   xhb:itemapi.obj
 0001:0002dc90       _hb_itemGetDL              0042ec90 f   xhb:itemapi.obj
 0001:0002dcb0       _hb_itemGetT               0042ecb0 f   xhb:itemapi.obj
 0001:0002dcd0       _hb_itemGetTsec            0042ecd0 f   xhb:itemapi.obj
 0001:0002dd00       _hb_itemGetDTsec           0042ed00 f   xhb:itemapi.obj
 0001:0002dd40       _hb_itemGetDTD             0042ed40 f   xhb:itemapi.obj
 0001:0002dd80       _hb_itemGetDTL             0042ed80 f   xhb:itemapi.obj
 0001:0002ddc0       _hb_itemGetD               0042edc0 f   xhb:itemapi.obj
 0001:0002de20       _hb_itemGetDT              0042ee20 f   xhb:itemapi.obj
 0001:0002dec0       _hb_itemGetL               0042eec0 f   xhb:itemapi.obj
 0001:0002dfc0       _hb_itemGetND              0042efc0 f   xhb:itemapi.obj
 0001:0002e090       _hb_itemGetNDDec           0042f090 f   xhb:itemapi.obj
 0001:0002e190       _hb_itemGetNI              0042f190 f   xhb:itemapi.obj
 0001:0002e240       _hb_itemGetNL              0042f240 f   xhb:itemapi.obj
 0001:0002e2f0       _hb_itemGetPtr             0042f2f0 f   xhb:itemapi.obj
 0001:0002e310       _hb_itemGetPtrGC           0042f310 f   xhb:itemapi.obj
 0001:0002e350       _hb_itemGetSymbol          0042f350 f   xhb:itemapi.obj
 0001:0002e380       _hb_itemPutDate            0042f380 f   xhb:itemapi.obj
 0001:0002e3d0       _hb_itemPutDS              0042f3d0 f   xhb:itemapi.obj
 0001:0002e3f0       _hb_itemPutDTS             0042f3f0 f   xhb:itemapi.obj
 0001:0002e430       _hb_itemPutD               0042f430 f   xhb:itemapi.obj
 0001:0002e460       _hb_itemPutDT              0042f460 f   xhb:itemapi.obj
 0001:0002e4c0       _hb_itemPutTDT             0042f4c0 f   xhb:itemapi.obj
 0001:0002e510       _hb_itemPutDL              0042f510 f   xhb:itemapi.obj
 0001:0002e530       _hb_itemPutDTL             0042f530 f   xhb:itemapi.obj
 0001:0002e570       _hb_itemPutDTsec           0042f570 f   xhb:itemapi.obj
 0001:0002e5c0       _hb_itemPutDTD             0042f5c0 f   xhb:itemapi.obj
 0001:0002e600       _hb_itemPutL               0042f600 f   xhb:itemapi.obj
 0001:0002e650       _hb_itemPutND              0042f650 f   xhb:itemapi.obj
 0001:0002e670       _hb_itemPutNDDec           0042f670 f   xhb:itemapi.obj
 0001:0002e710       _hb_itemPutNI              0042f710 f   xhb:itemapi.obj
 0001:0002e780       _hb_itemPutNL              0042f780 f   xhb:itemapi.obj
 0001:0002e7f0       _hb_itemPutNLen            0042f7f0 f   xhb:itemapi.obj
 0001:0002e8f0       _hb_itemPutNDLen           0042f8f0 f   xhb:itemapi.obj
 0001:0002e9a0       _hb_itemPutNILen           0042f9a0 f   xhb:itemapi.obj
 0001:0002ea20       _hb_itemPutNLLen           0042fa20 f   xhb:itemapi.obj
 0001:0002eaa0       _hb_itemPutSymbol          0042faa0 f   xhb:itemapi.obj
 0001:0002eb20       _hb_itemGetNLen            0042fb20 f   xhb:itemapi.obj
 0001:0002ebd0       _hb_itemSize               0042fbd0 f   xhb:itemapi.obj
 0001:0002ec20       _hb_itemType               0042fc20 f   xhb:itemapi.obj
 0001:0002ec40       _hb_itemTypeStr            0042fc40 f   xhb:itemapi.obj
 0001:0002edf0       _hb_itemUnRef              0042fdf0 f   xhb:itemapi.obj
 0001:0002ee20       _hb_itemUnRefOnce          0042fe20 f   xhb:itemapi.obj
 0001:0002ef50       _hb_itemUnShareString      0042ff50 f   xhb:itemapi.obj
 0001:0002f010       _hb_itemUnShare            00430010 f   xhb:itemapi.obj
 0001:0002f050       _hb_itemGetWriteCL         00430050 f   xhb:itemapi.obj
 0001:0002f0b0       _hb_itemClone              004300b0 f   xhb:itemapi.obj
 0001:0002f100       _hb_itemStrCmp             00430100 f   xhb:itemapi.obj
 0001:0002f240       _hb_itemStrBuf             00430240 f   xhb:itemapi.obj
 0001:0002f830       _hb_itemStr                00430830 f   xhb:itemapi.obj
 0001:0002f920       _hb_itemString             00430920 f   xhb:itemapi.obj
 0001:0002fbc0       _hb_itemPadConv            00430bc0 f   xhb:itemapi.obj
 0001:0002fca0       _hb_itemValToStr           00430ca0 f   xhb:itemapi.obj
 0001:0002fcf0       _hb_itemGetNLL             00430cf0 f   xhb:itemapi.obj
 0001:0002fda0       _hb_itemPutNLL             00430da0 f   xhb:itemapi.obj
 0001:0002fe30       _hb_itemPutNLLLen          00430e30 f   xhb:itemapi.obj
 0001:0002fed0       _hb_itemPutNInt            00430ed0 f   xhb:itemapi.obj
 0001:0002ff30       _hb_itemPutNIntLen         00430f30 f   xhb:itemapi.obj
 0001:0002ffa0       _hb_itemGetNInt            00430fa0 f   xhb:itemapi.obj
 0001:00030050       _hb_itemPutHBLong          00431050 f   xhb:itemapi.obj
 0001:000300e0       _hb_itemPutNumType         004310e0 f   xhb:itemapi.obj
 0001:000301a0       _hb_itemPutNull            004311a0 f   xhb:itemapi.obj
 0001:00030260       _hb_gcAlloc                00431260 f   xhb:garbage.obj
 0001:000302c0       _hb_gcIncRef               004312c0 f   xhb:garbage.obj
 0001:000302e0       _hb_gcDecRef               004312e0 f   xhb:garbage.obj
 0001:00030340       _hb_gcFree                 00431340 f   xhb:garbage.obj
 0001:000303d0       _hb_gcFunc                 004313d0 f   xhb:garbage.obj
 0001:000303f0       _hb_gcGripGet              004313f0 f   xhb:garbage.obj
 0001:00030450       _hb_gcGripDrop             00431450 f   xhb:garbage.obj
 0001:000304b0       _hb_gcLock                 004314b0 f   xhb:garbage.obj
 0001:00030500       _hb_gcUnlock               00431500 f   xhb:garbage.obj
 0001:00030560       _hb_gcItemRef              00431560 f   xhb:garbage.obj
 0001:00030e80       _hb_gcCollect              00431e80 f   xhb:garbage.obj
 0001:00030e90       _hb_gcCollectAll           00431e90 f   xhb:garbage.obj
 0001:000310c0       _hb_gcReleaseAll           004320c0 f   xhb:garbage.obj
 0001:00031200       _hb_gcInit                 00432200 f   xhb:garbage.obj
 0001:00031240       _hb_gcSetCollecting        00432240 f   xhb:garbage.obj
 0001:00031260       _HB_FUN_HB_GCSTEP          00432260 f   xhb:garbage.obj
 0001:00031270       _HB_FUN_HB_GCALL           00432270 f   xhb:garbage.obj
 0001:00031290       _HB_FUN_HB_GCALLOCATED     00432290 f   xhb:garbage.obj
 0001:000312b0       _hb_itemPushForward        004322b0 f   xhb:fastitem.obj
 0001:000312f0       _hb_itemForwardValue       004322f0 f   xhb:fastitem.obj
 0001:00031350       _hb_itemReturn             00432350 f   xhb:fastitem.obj
 0001:00031370       _hb_itemReturnForward      00432370 f   xhb:fastitem.obj
 0001:00031390       _hb_itemReturnRelease      00432390 f   xhb:fastitem.obj
 0001:000313c0       _hb_itemReleaseString      004323c0 f   xhb:fastitem.obj
 0001:00031420       _hb_itemClear              00432420 f   xhb:fastitem.obj
 0001:000315f0       _hb_itemSwap               004325f0 f   xhb:fastitem.obj
 0001:00031630       _hb_itemCopy               00432630 f   xhb:fastitem.obj
 0001:00031810       _hb_itemPutC               00432810 f   xhb:fastitem.obj
 0001:00031840       _hb_itemPutCL              00432840 f   xhb:fastitem.obj
 0001:00031a80       _hb_itemPutCPtr            00432a80 f   xhb:fastitem.obj
 0001:00031ad0       _hb_itemPutCRaw            00432ad0 f   xhb:fastitem.obj
 0001:00031b60       _hb_itemPutCRawStatic      00432b60 f   xhb:fastitem.obj
 0001:00031bc0       _hb_itemPutCStatic         00432bc0 f   xhb:fastitem.obj
 0001:00031bf0       _hb_itemPutCLStatic        00432bf0 f   xhb:fastitem.obj
 0001:00031c60       _hb_itemPutPtr             00432c60 f   xhb:fastitem.obj
 0001:00031cb0       _hb_itemPutPtrGC           00432cb0 f   xhb:fastitem.obj
 0001:00031ce0       _hb_itemPushStaticString   00432ce0 f   xhb:fastitem.obj
 0001:00031d30       _hb_retcAdopt              00432d30 f   xhb:fastitem.obj
 0001:00031dd0       _hb_retclenAdopt           00432dd0 f   xhb:fastitem.obj
 0001:00031e50       _hb_retclenAdoptRaw        00432e50 f   xhb:fastitem.obj
 0001:00031ec0       _hb_retcStatic             00432ec0 f   xhb:fastitem.obj
 0001:00031f20       _hb_retclenStatic          00432f20 f   xhb:fastitem.obj
 0001:00031f60       _hb_itemParamId            00432f60 f   xhb:fastitem.obj
 0001:00031fc0       _hb_xalloc                 00432fc0 f   xhb:fm.obj
 0001:00032010       _hb_xgrab                  00433010 f   xhb:fm.obj
 0001:00032070       _hb_xrealloc               00433070 f   xhb:fm.obj
 0001:00032110       _hb_xfree                  00433110 f   xhb:fm.obj
 0001:00032150       _hb_xRefInc                00433150 f   xhb:fm.obj
 0001:00032160       _hb_xRefDec                00433160 f   xhb:fm.obj
 0001:00032190       _hb_xRefFree               00433190 f   xhb:fm.obj
 0001:000321c0       _hb_xRefCount              004331c0 f   xhb:fm.obj
 0001:000321d0       _hb_xRefResize             004331d0 f   xhb:fm.obj
 0001:000322a0       _hb_xautorelease           004332a0 f   xhb:fm.obj
 0001:000322b0       _hb_xsize                  004332b0 f   xhb:fm.obj
 0001:000322c0       _hb_xinit                  004332c0 f   xhb:fm.obj
 0001:000322e0       _hb_xexit                  004332e0 f   xhb:fm.obj
 0001:000322f0       _hb_xquery                 004332f0 f   xhb:fm.obj
 0001:00032490       _HB_FUN_MEMORY             00433490 f   xhb:fm.obj
 0001:000324c0       _HB_FUN_HB_FM_NOSTAT       004334c0 f   xhb:fm.obj
 0001:000324d0       _hb_lang_ForceLink         004334d0 f   xhb:langapi.obj
 0001:00032520       _hb_langRegister           00433520 f   xhb:langapi.obj
 0001:00032580       _hb_langDeRegister         00433580 f   xhb:langapi.obj
 0001:000325b0       _hb_langFind               004335b0 f   xhb:langapi.obj
 0001:000325e0       _hb_langSelect             004335e0 f   xhb:langapi.obj
 0001:00032620       _hb_langSelectID           00433620 f   xhb:langapi.obj
 0001:00032650       _hb_langDGetItem           00433650 f   xhb:langapi.obj
 0001:00032680       _hb_langID                 00433680 f   xhb:langapi.obj
 0001:000326a0       _hb_langName               004336a0 f   xhb:langapi.obj
 0001:00032710       _hb_langDGetErrorDesc      00433710 f   xhb:langapi.obj
 0001:00032730       _HB_FUN_HB_LANGSELECT      00433730 f   xhb:langapi.obj
 0001:00032770       _HB_FUN_HB_LANGNAME        00433770 f   xhb:langapi.obj
 0001:00032790       _HB_FUN_HB_LANGERRMSG      00433790 f   xhb:langapi.obj
 0001:000327b0       _HB_FUN_HB_LANGMESSAGE     004337b0 f   xhb:langapi.obj
 0001:00033670       _HB_FUN_ERRORNEW           00434670 f   xhb:errorapi.obj
 0001:00033880       _HB_FUN___ERRINHANDLER     00434880 f   xhb:errorapi.obj
 0001:000338a0       _HB_FUN_ERRORBLOCK         004348a0 f   xhb:errorapi.obj
 0001:000338e0       _hb_errorBlock             004348e0 f   xhb:errorapi.obj
 0001:00033910       _hb_errorHandler           00434910 f   xhb:errorapi.obj
 0001:00033940       _HB_FUN_DOSERROR           00434940 f   xhb:errorapi.obj
 0001:00033980       _hb_errInit                00434980 f   xhb:errorapi.obj
 0001:000339f0       _hb_errExit                004349f0 f   xhb:errorapi.obj
 0001:00033a20       _hb_errNew                 00434a20 f   xhb:errorapi.obj
 0001:00033b70       _hb_errLaunch              00434b70 f   xhb:errorapi.obj
 0001:00033e00       _hb_errLaunchSubst         00434e00 f   xhb:errorapi.obj
 0001:00033fd0       _hb_errRelease             00434fd0 f   xhb:errorapi.obj
 0001:00033fe0       _hb_errGetCargo            00434fe0 f   xhb:errorapi.obj
 0001:00034000       _hb_errPutCargo            00435000 f   xhb:errorapi.obj
 0001:00034020       _hb_errGetArgs             00435020 f   xhb:errorapi.obj
 0001:00034040       _hb_errPutArgsArray        00435040 f   xhb:errorapi.obj
 0001:00034060       _hb_errGetDescription      00435060 f   xhb:errorapi.obj
 0001:00034080       _hb_errPutDescription      00435080 f   xhb:errorapi.obj
 0001:000340a0       _hb_errGetFileName         004350a0 f   xhb:errorapi.obj
 0001:000340c0       _hb_errPutFileName         004350c0 f   xhb:errorapi.obj
 0001:000340e0       _hb_errGetGenCode          004350e0 f   xhb:errorapi.obj
 0001:00034100       _hb_errPutGenCode          00435100 f   xhb:errorapi.obj
 0001:00034120       _hb_errGetOperation        00435120 f   xhb:errorapi.obj
 0001:00034140       _hb_errPutOperation        00435140 f   xhb:errorapi.obj
 0001:00034190       _hb_errGetOsCode           00435190 f   xhb:errorapi.obj
 0001:000341b0       _hb_errPutOsCode           004351b0 f   xhb:errorapi.obj
 0001:000341d0       _hb_errGetSeverity         004351d0 f   xhb:errorapi.obj
 0001:000341f0       _hb_errPutSeverity         004351f0 f   xhb:errorapi.obj
 0001:00034210       _hb_errGetSubCode          00435210 f   xhb:errorapi.obj
 0001:00034230       _hb_errPutSubCode          00435230 f   xhb:errorapi.obj
 0001:00034250       _hb_errGetSubSystem        00435250 f   xhb:errorapi.obj
 0001:00034270       _hb_errPutSubSystem        00435270 f   xhb:errorapi.obj
 0001:00034290       _hb_errGetProcName         00435290 f   xhb:errorapi.obj
 0001:000342b0       _hb_errPutProcName         004352b0 f   xhb:errorapi.obj
 0001:000342d0       _hb_errGetProcLine         004352d0 f   xhb:errorapi.obj
 0001:000342f0       _hb_errPutProcLine         004352f0 f   xhb:errorapi.obj
 0001:00034310       _hb_errGetThreadId         00435310 f   xhb:errorapi.obj
 0001:00034330       _hb_errPutThreadId         00435330 f   xhb:errorapi.obj
 0001:00034350       _hb_errGetRunningThreads   00435350 f   xhb:errorapi.obj
 0001:00034370       _hb_errPutRunningThreads   00435370 f   xhb:errorapi.obj
 0001:00034390       _hb_errGetVmThreadId       00435390 f   xhb:errorapi.obj
 0001:000343b0       _hb_errPutVmThreadId       004353b0 f   xhb:errorapi.obj
 0001:000343d0       _hb_errGetModuleName       004353d0 f   xhb:errorapi.obj
 0001:000343f0       _hb_errPutModuleName       004353f0 f   xhb:errorapi.obj
 0001:00034410       _hb_errGetCallStack        00435410 f   xhb:errorapi.obj
 0001:00034430       _hb_errPutCallStack        00435430 f   xhb:errorapi.obj
 0001:00034450       _hb_errGetTries            00435450 f   xhb:errorapi.obj
 0001:00034470       _hb_errPutTries            00435470 f   xhb:errorapi.obj
 0001:00034490       _hb_errGetFlags            00435490 f   xhb:errorapi.obj
 0001:000344b0       _hb_errPutFlags            004354b0 f   xhb:errorapi.obj
 0001:00034540       _hb_errPutArgs             00435540 f   xhb:errorapi.obj
 0001:00034590       _hb_errRT_New              00435590 f   xhb:errorapi.obj
 0001:00034660       _hb_errRT_New_Subst        00435660 f   xhb:errorapi.obj
 0001:00034740       _hb_errRT_SubstParams      00435740 f   xhb:errorapi.obj
 0001:000347c0       _hb_errRT_FileError        004357c0 f   xhb:errorapi.obj
 0001:00034880       _HB_FUN___ERRRT_BASE       00435880 f   xhb:errorapi.obj
 0001:000348f0       _HB_FUN___ERRRT_SBASE      004358f0 f   xhb:errorapi.obj
 0001:00034960       _hb_errRT_BASE             00435960 f   xhb:errorapi.obj
 0001:00034a50       _hb_errRT_BASE_Ext1        00435a50 f   xhb:errorapi.obj
 0001:00034b50       _hb_errRT_BASE_Subst       00435b50 f   xhb:errorapi.obj
 0001:00034c40       _hb_errRT_BASE_SubstR      00435c40 f   xhb:errorapi.obj
 0001:00034d30       _hb_errRT_TERM             00435d30 f   xhb:errorapi.obj
 0001:00034d80       _hb_errRT_DBCMD            00435d80 f   xhb:errorapi.obj
 0001:00034de0       _hb_errRT_DBCMD_Ext        00435de0 f   xhb:errorapi.obj
 0001:00034e30       _hb_errRT_TOOLS            00435e30 f   xhb:errorapi.obj
 0001:00034e80       _hb_errInternal            00435e80 f   xhb:errorapi.obj
 0001:00035020       _hb_stack_init             00436020 f   xhb:estack.obj
 0001:000350e0       _hb_stackInit              004360e0 f   xhb:estack.obj
 0001:00035120       _hb_stackFree              00436120 f   xhb:estack.obj
 0001:000351f0       _hb_stackSetStruct         004361f0 f   xhb:estack.obj
 0001:00035200       _hb_stackPop               00436200 f   xhb:estack.obj
 0001:00035260       _hb_stackPopReturn         00436260 f   xhb:estack.obj
 0001:000352d0       _hb_stackDec               004362d0 f   xhb:estack.obj
 0001:00035300       _hb_stackDecrease          00436300 f   xhb:estack.obj
 0001:00035340       _hb_stackPush              00436340 f   xhb:estack.obj
 0001:00035370       _hb_stackAllocItem         00436370 f   xhb:estack.obj
 0001:000353a0       _hb_stackPushReturn        004363a0 f   xhb:estack.obj
 0001:000353f0       _hb_stackIncrease          004363f0 f   xhb:estack.obj
 0001:000354c0       _hb_stackRemove            004364c0 f   xhb:estack.obj
 0001:000354f0       _hb_stackNewFrame          004364f0 f   xhb:estack.obj
 0001:00035560       _hb_stackOldFrame          00436560 f   xhb:estack.obj
 0001:00035670       _hb_stackClearPrivateBases 00436670 f   xhb:estack.obj
 0001:000356b0       _hb_stackTopOffset         004366b0 f   xhb:estack.obj
 0001:000356d0       _hb_stackBaseOffset        004366d0 f   xhb:estack.obj
 0001:000356f0       _hb_stackBaseProcOffset    004366f0 f   xhb:estack.obj
 0001:00035750       _hb_stackTotalItems        00436750 f   xhb:estack.obj
 0001:00035760       _hb_stackIOErrors          00436760 f   xhb:estack.obj
 0001:00035770       _hb_stackRDD               00436770 f   xhb:estack.obj
 0001:00035780       _hb_stackRDDTLS            00436780 f   xhb:estack.obj
 0001:00035790       _hb_stackGetStaticsBase    00436790 f   xhb:estack.obj
 0001:000357a0       _hb_stackSetStaticsBase    004367a0 f   xhb:estack.obj
 0001:000357b0       _hb_stackItemBasePtr       004367b0 f   xhb:estack.obj
 0001:000357c0       _hb_stackItem              004367c0 f   xhb:estack.obj
 0001:000357f0       _hb_stackItemFromTop       004367f0 f   xhb:estack.obj
 0001:00035820       _hb_stackItemFromBase      00436820 f   xhb:estack.obj
 0001:00035850       _hb_stackLocalVariable     00436850 f   xhb:estack.obj
 0001:00035880       _hb_stackTopItem           00436880 f   xhb:estack.obj
 0001:00035890       _hb_stackBaseItem          00436890 f   xhb:estack.obj
 0001:000358a0       _hb_stackSelfItem          004368a0 f   xhb:estack.obj
 0001:000358b0       _hb_stackReturnItem        004368b0 f   xhb:estack.obj
 0001:000358c0       _hb_stackDateBuffer        004368c0 f   xhb:estack.obj
 0001:000358d0       _hb_stackGetBase           004368d0 f   xhb:estack.obj
 0001:00035950       _hb_stackGetActionRequest  00436950 f   xhb:estack.obj
 0001:00035960       _hb_stackSetActionRequest  00436960 f   xhb:estack.obj
 0001:00035980       _hb_stackDispLocal         00436980 f   xhb:estack.obj
 0001:00035c60       _hb_stackDispCall          00436c60 f   xhb:estack.obj
 0001:00035d70       _hb_param                  00436d70 f   xhb:extend.obj
 0001:00035e20       _hb_paramError             00436e20 f   xhb:extend.obj
 0001:00035e50       _hb_extIsArray             00436e50 f   xhb:extend.obj
 0001:00035ec0       _hb_extIsObject            00436ec0 f   xhb:extend.obj
 0001:00035f50       _hb_parc                   00436f50 f   xhb:extend.obj
 0001:00035ff0       _hb_parcx                  00436ff0 f   xhb:extend.obj
 0001:000360a0       _hb_parclen                004370a0 f   xhb:extend.obj
 0001:00036140       _hb_parcsiz                00437140 f   xhb:extend.obj
 0001:000361e0       _hb_pards                  004371e0 f   xhb:extend.obj
 0001:000362a0       _hb_pardts                 004372a0 f   xhb:extend.obj
 0001:00036360       _hb_pardsbuff              00437360 f   xhb:extend.obj
 0001:00036420       _hb_pardl                  00437420 f   xhb:extend.obj
 0001:000364c0       _hb_pardtsbuff             004374c0 f   xhb:extend.obj
 0001:00036580       _hb_part                   00437580 f   xhb:extend.obj
 0001:00036620       _hb_pardtsec               00437620 f   xhb:extend.obj
 0001:000366d0       _hb_pardtd                 004376d0 f   xhb:extend.obj
 0001:00036780       _hb_parl                   00437780 f   xhb:extend.obj
 0001:00036900       _hb_parnd                  00437900 f   xhb:extend.obj
 0001:00036a00       _hb_parni                  00437a00 f   xhb:extend.obj
 0001:00036af0       _hb_parnl                  00437af0 f   xhb:extend.obj
 0001:00036bf0       _hb_parnint                00437bf0 f   xhb:extend.obj
 0001:00036d00       _hb_parptr                 00437d00 f   xhb:extend.obj
 0001:00036da0       _hb_parptrGC               00437da0 f   xhb:extend.obj
 0001:00036e80       _hb_parinfa                00437e80 f   xhb:extend.obj
 0001:00036ec0       _hb_parinfo                00437ec0 f   xhb:extend.obj
 0001:00036f70       _hb_pcount                 00437f70 f   xhb:extend.obj
 0001:00036f90       _hb_ret                    00437f90 f   xhb:extend.obj
 0001:00036fc0       _hb_reta                   00437fc0 f   xhb:extend.obj
 0001:00036fe0       _hb_retc                   00437fe0 f   xhb:extend.obj
 0001:00037000       _hb_retc_null              00438000 f   xhb:extend.obj
 0001:00037020       _hb_retclen                00438020 f   xhb:extend.obj
 0001:00037040       _hb_retds                  00438040 f   xhb:extend.obj
 0001:00037060       _hb_retdts                 00438060 f   xhb:extend.obj
 0001:00037080       _hb_retd                   00438080 f   xhb:extend.obj
 0001:000370a0       _hb_retdt                  004380a0 f   xhb:extend.obj
 0001:000370e0       _hb_retdl                  004380e0 f   xhb:extend.obj
 0001:00037100       _hb_retdtd                 00438100 f   xhb:extend.obj
 0001:00037120       _hb_retdtl                 00438120 f   xhb:extend.obj
 0001:00037140       _hb_retl                   00438140 f   xhb:extend.obj
 0001:00037170       _hb_retnd                  00438170 f   xhb:extend.obj
 0001:00037190       _hb_retni                  00438190 f   xhb:extend.obj
 0001:000371b0       _hb_retnl                  004381b0 f   xhb:extend.obj
 0001:000371d0       _hb_retnlen                004381d0 f   xhb:extend.obj
 0001:00037200       _hb_retndlen               00438200 f   xhb:extend.obj
 0001:00037230       _hb_retnilen               00438230 f   xhb:extend.obj
 0001:00037250       _hb_retnllen               00438250 f   xhb:extend.obj
 0001:00037270       _hb_retptr                 00438270 f   xhb:extend.obj
 0001:00037290       _hb_retptrGC               00438290 f   xhb:extend.obj
 0001:000372b0       _hb_retnint                004382b0 f   xhb:extend.obj
 0001:000372d0       _hb_retnintlen             004382d0 f   xhb:extend.obj
 0001:000372f0       _hb_storc                  004382f0 f   xhb:extend.obj
 0001:000373c0       _hb_storclen               004383c0 f   xhb:extend.obj
 0001:00037490       _hb_storclenAdopt          00438490 f   xhb:extend.obj
 0001:00037580       _hb_stords                 00438580 f   xhb:extend.obj
 0001:00037650       _hb_stordts                00438650 f   xhb:extend.obj
 0001:00037720       _hb_stordl                 00438720 f   xhb:extend.obj
 0001:000377f0       _hb_stordtd                004387f0 f   xhb:extend.obj
 0001:000378c0       _hb_stordtl                004388c0 f   xhb:extend.obj
 0001:00037990       _hb_stord                  00438990 f   xhb:extend.obj
 0001:00037a70       _hb_stordt                 00438a70 f   xhb:extend.obj
 0001:00037b70       _hb_storl                  00438b70 f   xhb:extend.obj
 0001:00037c70       _hb_storni                 00438c70 f   xhb:extend.obj
 0001:00037d40       _hb_stornl                 00438d40 f   xhb:extend.obj
 0001:00037e10       _hb_stornint               00438e10 f   xhb:extend.obj
 0001:00037f00       _hb_stornd                 00438f00 f   xhb:extend.obj
 0001:00037fd0       _hb_storptr                00438fd0 f   xhb:extend.obj
 0001:000380a0       _hb_stornll                004390a0 f   xhb:extend.obj
 0001:00038180       _hb_parnll                 00439180 f   xhb:extend.obj
 0001:00038270       _hb_retnll                 00439270 f   xhb:extend.obj
 0001:00038290       _hb_retnlllen              00439290 f   xhb:extend.obj
 0001:000382b0       _hb_traceInit              004392b0 f   xhb:trace.obj
 0001:00038320       _hb_traceExit              00439320 f   xhb:trace.obj
 0001:00038330       _TraceLog                  00439330 f   xhb:trace.obj
 0001:000383d0       _HB_FUN_HB_TRACESTATE      004393d0 f   xhb:trace.obj
 0001:00038410       _HB_FUN_HB_TRACELEVEL      00439410 f   xhb:trace.obj
 0001:00038450       _HB_FUN_HB_TRACESTRING     00439450 f   xhb:trace.obj
 0001:00038490       _HB_FUN_METHODNAME         00439490 f   xhb:proc.obj
 0001:000384d0       _HB_FUN_PROCNAME           004394d0 f   xhb:proc.obj
 0001:00038510       _HB_FUN_PROCLINE           00439510 f   xhb:proc.obj
 0001:00038550       _HB_FUN_PROCFILE           00439550 f   xhb:proc.obj
 0001:00038590       _hb_procinfo               00439590 f   xhb:proc.obj
 0001:00038860       _hb_arrayNew               00439860 f   xhb:arrays.obj
 0001:00038920       _hb_arraySize              00439920 f   xhb:arrays.obj
 0001:00038ba0       _hb_arrayLen               00439ba0 f   xhb:arrays.obj
 0001:00038bc0       _hb_arrayIsObject          00439bc0 f   xhb:arrays.obj
 0001:00038c00       _hb_arrayId                00439c00 f   xhb:arrays.obj
 0001:00038c20       _hb_arrayAdd               00439c20 f   xhb:arrays.obj
 0001:00038ca0       _hb_arrayAddForward        00439ca0 f   xhb:arrays.obj
 0001:00038d20       _hb_arrayDel               00439d20 f   xhb:arrays.obj
 0001:00038e10       _hb_arrayIns               00439e10 f   xhb:arrays.obj
 0001:00038eb0       _hb_arraySet               00439eb0 f   xhb:arrays.obj
 0001:00038f20       _hb_arraySetForward        00439f20 f   xhb:arrays.obj
 0001:00038f90       _hb_arrayGet               00439f90 f   xhb:arrays.obj
 0001:00039020       _hb_arrayGetForward        0043a020 f   xhb:arrays.obj
 0001:000390b0       _hb_arrayGetByRef          0043a0b0 f   xhb:arrays.obj
 0001:000391d0       _hb_arrayGetDS             0043a1d0 f   xhb:arrays.obj
 0001:00039230       _hb_arrayGetDTS            0043a230 f   xhb:arrays.obj
 0001:00039290       _hb_arrayGetDL             0043a290 f   xhb:arrays.obj
 0001:000392e0       _hb_arrayGetT              0043a2e0 f   xhb:arrays.obj
 0001:00039330       _hb_arrayGetDTsec          0043a330 f   xhb:arrays.obj
 0001:00039390       _hb_arrayGetDTD            0043a390 f   xhb:arrays.obj
 0001:000393f0       _hb_arrayGetItemPtr        0043a3f0 f   xhb:arrays.obj
 0001:00039430       _hb_arrayGetL              0043a430 f   xhb:arrays.obj
 0001:00039470       _hb_arrayGetNI             0043a470 f   xhb:arrays.obj
 0001:000394b0       _hb_arrayGetNL             0043a4b0 f   xhb:arrays.obj
 0001:000394f0       _hb_arrayGetNLL            0043a4f0 f   xhb:arrays.obj
 0001:00039540       _hb_arrayGetNInt           0043a540 f   xhb:arrays.obj
 0001:00039590       _hb_arrayGetND             0043a590 f   xhb:arrays.obj
 0001:000395e0       _hb_arrayCopyC             0043a5e0 f   xhb:arrays.obj
 0001:00039650       _hb_arrayGetC              0043a650 f   xhb:arrays.obj
 0001:000396b0       _hb_arrayGetCPtr           0043a6b0 f   xhb:arrays.obj
 0001:00039710       _hb_arrayGetCLen           0043a710 f   xhb:arrays.obj
 0001:00039770       _hb_arrayGetPtr            0043a770 f   xhb:arrays.obj
 0001:000397b0       _hb_arrayGetType           0043a7b0 f   xhb:arrays.obj
 0001:000397f0       _hb_arraySetDS             0043a7f0 f   xhb:arrays.obj
 0001:00039840       _hb_arraySetDL             0043a840 f   xhb:arrays.obj
 0001:00039890       _hb_arraySetL              0043a890 f   xhb:arrays.obj
 0001:000398e0       _hb_arraySetNI             0043a8e0 f   xhb:arrays.obj
 0001:00039930       _hb_arraySetNL             0043a930 f   xhb:arrays.obj
 0001:00039980       _hb_arraySetNLL            0043a980 f   xhb:arrays.obj
 0001:000399d0       _hb_arraySetNInt           0043a9d0 f   xhb:arrays.obj
 0001:00039a20       _hb_arraySetND             0043aa20 f   xhb:arrays.obj
 0001:00039a70       _hb_arraySetC              0043aa70 f   xhb:arrays.obj
 0001:00039ac0       _hb_arraySetCL             0043aac0 f   xhb:arrays.obj
 0001:00039b10       _hb_arraySetCPtr           0043ab10 f   xhb:arrays.obj
 0001:00039b60       _hb_arraySetPtr            0043ab60 f   xhb:arrays.obj
 0001:00039bb0       _hb_arraySetPtrGC          0043abb0 f   xhb:arrays.obj
 0001:00039c00       _hb_arrayLast              0043ac00 f   xhb:arrays.obj
 0001:00039ca0       _hb_arrayFill              0043aca0 f   xhb:arrays.obj
 0001:00039d30       _hb_arrayScan              0043ad30 f   xhb:arrays.obj
 0001:0003a2a0       _hb_arrayEval              0043b2a0 f   xhb:arrays.obj
 0001:0003a550       _hb_arrayReleaseBase       0043b550 f   xhb:arrays.obj
 0001:0003a620       _hb_arrayRelease           0043b620 f   xhb:arrays.obj
 0001:0003a660       _hb_arrayCopy              0043b660 f   xhb:arrays.obj
 0001:0003a770       _hb_arrayClone2            0043b770 f   xhb:arrays.obj
 0001:0003a790       _hb_arrayCloneEx           0043b790 f   xhb:arrays.obj
 0001:0003a940       _hb_arrayClone             0043b940 f   xhb:arrays.obj
 0001:0003a980       _hb_arrayFromStack         0043b980 f   xhb:arrays.obj
 0001:0003a9e0       _hb_arrayFromParams        0043b9e0 f   xhb:arrays.obj
 0001:0003aab0       _hb_arrayBaseParams        0043bab0 f   xhb:arrays.obj
 0001:0003aad0       _hb_arraySelfParams        0043bad0 f   xhb:arrays.obj
 0001:0003ab40       _hb_arrayReleaseGarbage    0043bb40 f   xhb:arrays.obj
 0001:0003abd0       _hb_arrayMode              0043bbd0 f   xhb:arrays.obj
 0001:0003abe0       _hb_winmainArgInit         0043bbe0 f   xhb:cmdarg.obj
 0001:0003ac10       _hb_winmainArgGet          0043bc10 f   xhb:cmdarg.obj
 0001:0003ac50       _hb_cmdargInit             0043bc50 f   xhb:cmdarg.obj
 0001:0003ac70       _hb_cmdargARGC             0043bc70 f   xhb:cmdarg.obj
 0001:0003ac80       _hb_cmdargARGV             0043bc80 f   xhb:cmdarg.obj
 0001:0003ac90       _hb_cmdargIsInternal       0043bc90 f   xhb:cmdarg.obj
 0001:0003aee0       _hb_cmdargCheck            0043bee0 f   xhb:cmdarg.obj
 0001:0003af10       _hb_cmdargString           0043bf10 f   xhb:cmdarg.obj
 0001:0003af30       _hb_cmdargNum              0043bf30 f   xhb:cmdarg.obj
 0001:0003af70       _HB_FUN_HB_ARGCHECK        0043bf70 f   xhb:cmdarg.obj
 0001:0003afc0       _HB_FUN_HB_ARGSTRING       0043bfc0 f   xhb:cmdarg.obj
 0001:0003b020       _HB_FUN_HB_ARGC            0043c020 f   xhb:cmdarg.obj
 0001:0003b040       _HB_FUN_HB_ARGV            0043c040 f   xhb:cmdarg.obj
 0001:0003b0b0       _hb_cmdargProcessVM        0043c0b0 f   xhb:cmdarg.obj
 0001:0003b2b0       _hb_verCvsID               0043c2b0 f   xhb:cmdarg.obj
 0001:0003b2c0       _hb_verCvsChangeLogID      0043c2c0 f   xhb:cmdarg.obj
 0001:0003b2d0       _hb_verCvsLastEntry        0043c2d0 f   xhb:cmdarg.obj
 0001:0003b2e0       _hb_verFlagsC              0043c2e0 f   xhb:cmdarg.obj
 0001:0003b2f0       _hb_verFlagsL              0043c2f0 f   xhb:cmdarg.obj
 0001:0003b300       _hb_verFlagsPRG            0043c300 f   xhb:cmdarg.obj
 0001:0003b310       _HB_FUN_HB_CMDARGARGV      0043c310 f   xhb:cmdarg.obj
 0001:0003b560       _hb_fsGetOsHandle          0043c560 f   xhb:filesys.obj
 0001:0003b570       _hb_fsPOpen                0043c570 f   xhb:filesys.obj
 0001:0003b590       _hb_fsOpenProcess          0043c590 f   xhb:filesys.obj
 0001:0003b9d0       _hb_fsProcessValue         0043c9d0 f   xhb:filesys.obj
 0001:0003ba60       _hb_fsCloseProcess         0043ca60 f   xhb:filesys.obj
 0001:0003bab0       _hb_fsOpen                 0043cab0 f   xhb:filesys.obj
 0001:0003bb50       _hb_fsCreate               0043cb50 f   xhb:filesys.obj
 0001:0003bbf0       _hb_fsCreateEx             0043cbf0 f   xhb:filesys.obj
 0001:0003bca0       _hb_fsClose                0043cca0 f   xhb:filesys.obj
 0001:0003bcd0       _hb_fsSetDevMode           0043ccd0 f   xhb:filesys.obj
 0001:0003bd70       _hb_fsGetFileTime          0043cd70 f   xhb:filesys.obj
 0001:0003be40       _hb_fsGetAttr              0043ce40 f   xhb:filesys.obj
 0001:0003beb0       _hb_fsSetFileTime          0043ceb0 f   xhb:filesys.obj
 0001:0003bff0       _hb_fsSetAttr              0043cff0 f   xhb:filesys.obj
 0001:0003c080       _hb_fsRead                 0043d080 f   xhb:filesys.obj
 0001:0003c0f0       _hb_fsWrite                0043d0f0 f   xhb:filesys.obj
 0001:0003c180       _hb_fsReadLarge            0043d180 f   xhb:filesys.obj
 0001:0003c1d0       _hb_fsWriteLarge           0043d1d0 f   xhb:filesys.obj
 0001:0003c240       _hb_fsReadAt               0043d240 f   xhb:filesys.obj
 0001:0003c320       _hb_fsWriteAt              0043d320 f   xhb:filesys.obj
 0001:0003c400       _hb_fsTruncAt              0043d400 f   xhb:filesys.obj
 0001:0003c4b0       _hb_fsCommit               0043d4b0 f   xhb:filesys.obj
 0001:0003c4e0       _hb_fsLock                 0043d4e0 f   xhb:filesys.obj
 0001:0003c640       _hb_fsLockLarge            0043d640 f   xhb:filesys.obj
 0001:0003c810       _hb_fsSeek                 0043d810 f   xhb:filesys.obj
 0001:0003c8b0       _hb_fsSeekLarge            0043d8b0 f   xhb:filesys.obj
 0001:0003ca10       _hb_fsTell                 0043da10 f   xhb:filesys.obj
 0001:0003ca30       _hb_fsDelete               0043da30 f   xhb:filesys.obj
 0001:0003ca80       _hb_fsRename               0043da80 f   xhb:filesys.obj
 0001:0003cb00       _hb_fsMkDir                0043db00 f   xhb:filesys.obj
 0001:0003cb60       _hb_fsChDir                0043db60 f   xhb:filesys.obj
 0001:0003cbb0       _hb_fsRmDir                0043dbb0 f   xhb:filesys.obj
 0001:0003cc00       _hb_fsCurDir               0043dc00 f   xhb:filesys.obj
 0001:0003cc30       _hb_fsCurDirBuff           0043dc30 f   xhb:filesys.obj
 0001:0003cd80       _hb_fsChDrv                0043dd80 f   xhb:filesys.obj
 0001:0003ce20       _hb_fsCurDrv               0043de20 f   xhb:filesys.obj
 0001:0003ce60       _hb_fsIsDrv                0043de60 f   xhb:filesys.obj
 0001:0003cec0       _hb_fsIsDevice             0043dec0 f   xhb:filesys.obj
 0001:0003cf10       _hb_fsExtName              0043df10 f   xhb:filesys.obj
 0001:0003d0b0       _hb_fsExtOpen              0043e0b0 f   xhb:filesys.obj
 0001:0003d1e0       _hb_fsEof                  0043e1e0 f   xhb:filesys.obj
 0001:0003d300       _hb_fsCurDirEx             0043e300 f   xhb:filesys.obj
 0001:0003d330       _hb_fsCurDirBuffEx         0043e330 f   xhb:filesys.obj
 0001:0003d400       _hb_fsNameConv             0043e400 f   xhb:filesys.obj
 0001:0003d700       _HB_FUN_HB_DISABLEWAITLOCKS 0043e700 f   xhb:filesys.obj
 0001:0003d750       _HB_FUN_DISABLEWAITLOCKS   0043e750 f   xhb:filesys.obj
 0001:0003d760       _hb_gtInit                 0043e760 f   xhb:gtapi.obj
 0001:0003d810       _hb_gtExit                 0043e810 f   xhb:gtapi.obj
 0001:0003d870       _hb_gtReadKey              0043e870 f   xhb:gtapi.obj
 0001:0003d8a0       _hb_gtBox                  0043e8a0 f   xhb:gtapi.obj
 0001:0003d910       _hb_gtBoxD                 0043e910 f   xhb:gtapi.obj
 0001:0003d980       _hb_gtBoxS                 0043e980 f   xhb:gtapi.obj
 0001:0003d9f0       _hb_gtDrawBox              0043e9f0 f   xhb:gtapi.obj
 0001:0003da50       _hb_gtColorSelect          0043ea50 f   xhb:gtapi.obj
 0001:0003da80       _hb_gtDispBegin            0043ea80 f   xhb:gtapi.obj
 0001:0003dab0       _hb_gtDispCount            0043eab0 f   xhb:gtapi.obj
 0001:0003dae0       _hb_gtDispEnd              0043eae0 f   xhb:gtapi.obj
 0001:0003db10       _hb_gtPreExt               0043eb10 f   xhb:gtapi.obj
 0001:0003db40       _hb_gtPostExt              0043eb40 f   xhb:gtapi.obj
 0001:0003db70       _hb_gtGetColorStr          0043eb70 f   xhb:gtapi.obj
 0001:0003dba0       _hb_gtColorToN             0043eba0 f   xhb:gtapi.obj
 0001:0003dbd0       _hb_gtColorsToString       0043ebd0 f   xhb:gtapi.obj
 0001:0003dc10       _hb_gtSetColorStr          0043ec10 f   xhb:gtapi.obj
 0001:0003dc40       _hb_gtGetCursor            0043ec40 f   xhb:gtapi.obj
 0001:0003dc80       _hb_gtSetCursor            0043ec80 f   xhb:gtapi.obj
 0001:0003dcc0       _hb_gtGetPos               0043ecc0 f   xhb:gtapi.obj
 0001:0003dd20       _hb_gtSetPos               0043ed20 f   xhb:gtapi.obj
 0001:0003dd60       _hb_gtMaxCol               0043ed60 f   xhb:gtapi.obj
 0001:0003dd90       _hb_gtMaxRow               0043ed90 f   xhb:gtapi.obj
 0001:0003ddc0       _hb_gtScrDim               0043edc0 f   xhb:gtapi.obj
 0001:0003de20       _hb_gtSetSnowFlag          0043ee20 f   xhb:gtapi.obj
 0001:0003de50       _hb_gtRectSize             0043ee50 f   xhb:gtapi.obj
 0001:0003dea0       _hb_gtIsColor              0043eea0 f   xhb:gtapi.obj
 0001:0003ded0       _hb_gtRepChar              0043eed0 f   xhb:gtapi.obj
 0001:0003df30       _hb_gtSave                 0043ef30 f   xhb:gtapi.obj
 0001:0003df70       _hb_gtRest                 0043ef70 f   xhb:gtapi.obj
 0001:0003dfc0       _hb_gtGetChar              0043efc0 f   xhb:gtapi.obj
 0001:0003e010       _hb_gtPutChar              0043f010 f   xhb:gtapi.obj
 0001:0003e060       _hb_gtBeginWrite           0043f060 f   xhb:gtapi.obj
 0001:0003e070       _hb_gtEndWrite             0043f070 f   xhb:gtapi.obj
 0001:0003e0a0       _hb_gtGetBlink             0043f0a0 f   xhb:gtapi.obj
 0001:0003e0e0       _hb_gtSetBlink             0043f0e0 f   xhb:gtapi.obj
 0001:0003e110       _hb_gtSetMode              0043f110 f   xhb:gtapi.obj
 0001:0003e150       _hb_gtPutText              0043f150 f   xhb:gtapi.obj
 0001:0003e1b0       _hb_gtWriteAt              0043f1b0 f   xhb:gtapi.obj
 0001:0003e1f0       _hb_gtWrite                0043f1f0 f   xhb:gtapi.obj
 0001:0003e230       _hb_gtWriteCon             0043f230 f   xhb:gtapi.obj
 0001:0003e270       _hb_gtScroll               0043f270 f   xhb:gtapi.obj
 0001:0003e2f0       _hb_gtScrollUp             0043f2f0 f   xhb:gtapi.obj
 0001:0003e340       _hb_gtDrawShadow           0043f340 f   xhb:gtapi.obj
 0001:0003e390       _hb_gtTone                 0043f390 f   xhb:gtapi.obj
 0001:0003e3d0       _hb_gtVersion              0043f3d0 f   xhb:gtapi.obj
 0001:0003e400       _hb_gtSetAttribute         0043f400 f   xhb:gtapi.obj
 0001:0003e450       _hb_gtSuspend              0043f450 f   xhb:gtapi.obj
 0001:0003e480       _hb_gtResume               0043f480 f   xhb:gtapi.obj
 0001:0003e4b0       _hb_gtOutStd               0043f4b0 f   xhb:gtapi.obj
 0001:0003e4f0       _hb_gtOutErr               0043f4f0 f   xhb:gtapi.obj
 0001:0003e530       _hb_gtSetDispCP            0043f530 f   xhb:gtapi.obj
 0001:0003e570       _hb_gtSetKeyCP             0043f570 f   xhb:gtapi.obj
 0001:0003e5b0       _hb_gtInfo                 0043f5b0 f   xhb:gtapi.obj
 0001:0003e5f0       _hb_gtAlert                0043f5f0 f   xhb:gtapi.obj
 0001:0003e640       _hb_gtSetFlag              0043f640 f   xhb:gtapi.obj
 0001:0003e670       _hb_gtGetCurrColor         0043f670 f   xhb:gtapi.obj
 0001:0003e6a0       _hb_gtGetClearColor        0043f6a0 f   xhb:gtapi.obj
 0001:0003e6d0       _hb_gtSetClearColor        0043f6d0 f   xhb:gtapi.obj
 0001:0003e700       _hb_gtGetClearChar         0043f700 f   xhb:gtapi.obj
 0001:0003e730       _hb_gtSetClearChar         0043f730 f   xhb:gtapi.obj
 0001:0003e760       _hb_gtGetScrChar           0043f760 f   xhb:gtapi.obj
 0001:0003e7a0       _hb_gtPutScrChar           0043f7a0 f   xhb:gtapi.obj
 0001:0003e7f0       _hb_gtFlush                0043f7f0 f   xhb:gtapi.obj
 0001:0003e820       _hb_gtGetPosEx             0043f820 f   xhb:gtapi.obj
 0001:0003e860       _hb_gtScrollEx             0043f860 f   xhb:gtapi.obj
 0001:0003e8f0       _hb_gtBoxEx                0043f8f0 f   xhb:gtapi.obj
 0001:0003e960       _hb_gtGfxPrimitive         0043f960 f   xhb:gtapi.obj
 0001:0003e9b0       _hb_gtGfxText              0043f9b0 f   xhb:gtapi.obj
 0001:0003ea00       _hb_setkeyInit             0043fa00 f   xhb:setkey.obj
 0001:0003ea10       _hb_setkeyExit             0043fa10 f   xhb:setkey.obj
 0001:0003ebf0       _HB_FUN_SETKEY             0043fbf0 f   xhb:setkey.obj
 0001:0003ece0       _HB_FUN_HB_SETKEYARRAY     0043fce0 f   xhb:setkey.obj
 0001:0003ed70       _HB_FUN_HB_SETKEYGET       0043fd70 f   xhb:setkey.obj
 0001:0003edf0       _HB_FUN_HB_SETKEYSAVE      0043fdf0 f   xhb:setkey.obj
 0001:0003ef90       _HB_FUN_HB_SETKEYCHECK     0043ff90 f   xhb:setkey.obj
 0001:0003f110       _hb_conXSaveRestRelease    00440110 f   xhb:xsavescr.obj
 0001:0003f130       _HB_FUN___XSAVESCREEN      00440130 f   xhb:xsavescr.obj
 0001:0003f1c0       _HB_FUN___XRESTSCREEN      004401c0 f   xhb:xsavescr.obj
 0001:0003fa20       _hb_set_SetPrinterStart    00440a20 f   xhb:set.obj
 0001:0003fa80       _hb_set_SetPrinterStop     00440a80 f   xhb:set.obj
 0001:0003fad0       _hb_setSetCentury          00440ad0 f   xhb:set.obj
 0001:0003fc80       _HB_FUN___SETCENTURY       00440c80 f   xhb:set.obj
 0001:0003fce0       _HB_FUN_SETCANCEL          00440ce0 f   xhb:set.obj
 0001:0003fd30       _HB_FUN_SET                00440d30 f   xhb:set.obj
 0001:00042100       _hb_setInitialize          00443100 f   xhb:set.obj
 0001:000425a0       _hb_setRelease             004435a0 f   xhb:set.obj
 0001:00042880       _hb_setClone               00443880 f   xhb:set.obj
 0001:00042ab0       _hb_setListenerAdd         00443ab0 f   xhb:set.obj
 0001:00042b30       _hb_setListenerNotify      00443b30 f   xhb:set.obj
 0001:00042b60       _hb_setListenerRemove      00443b60 f   xhb:set.obj
 0001:00042e00       _hb_setSetItem             00443e00 f   xhb:set.obj
 0001:00043e30       _hb_setSetItem2            00444e30 f   xhb:set.obj
 0001:00043f20       _hb_setGetL                00444f20 f   xhb:set.obj
 0001:00044100       _hb_setGetCPtr             00445100 f   xhb:set.obj
 0001:00044210       _hb_setGetNI               00445210 f   xhb:set.obj
 0001:00044310       _hb_setGetNL               00445310 f   xhb:set.obj
 0001:00044320       _hb_setGetFirstSetPath     00445320 f   xhb:set.obj
 0001:00044330       _hb_setGetAltHan           00445330 f   xhb:set.obj
 0001:00044340       _hb_setGetCentury          00445340 f   xhb:set.obj
 0001:00044350       _hb_setGetExtraHan         00445350 f   xhb:set.obj
 0001:00044360       _hb_setGetPrintHan         00445360 f   xhb:set.obj
 0001:00044370       _hb_setGetAlternate        00445370 f   xhb:set.obj
 0001:00044380       _hb_setGetAltFile          00445380 f   xhb:set.obj
 0001:00044390       _hb_setGetAutOpen          00445390 f   xhb:set.obj
 0001:000443a0       _hb_setGetAutOrder         004453a0 f   xhb:set.obj
 0001:000443b0       _hb_setGetAutoShare        004453b0 f   xhb:set.obj
 0001:000443c0       _hb_setGetBell             004453c0 f   xhb:set.obj
 0001:000443d0       _hb_setGetCancel           004453d0 f   xhb:set.obj
 0001:000443e0       _hb_setGetColor            004453e0 f   xhb:set.obj
 0001:000443f0       _hb_setGetConfirm          004453f0 f   xhb:set.obj
 0001:00044400       _hb_setGetConsole          00445400 f   xhb:set.obj
 0001:00044410       _hb_setGetDateFormat       00445410 f   xhb:set.obj
 0001:00044420       _hb_setGetTimeFormat       00445420 f   xhb:set.obj
 0001:00044430       _hb_setGetDebug            00445430 f   xhb:set.obj
 0001:00044440       _hb_setGetDecimals         00445440 f   xhb:set.obj
 0001:00044450       _hb_setGetDefault          00445450 f   xhb:set.obj
 0001:00044460       _hb_setGetDeleted          00445460 f   xhb:set.obj
 0001:00044470       _hb_setGetDelimChars       00445470 f   xhb:set.obj
 0001:00044480       _hb_setGetDelimiters       00445480 f   xhb:set.obj
 0001:00044490       _hb_setGetDevice           00445490 f   xhb:set.obj
 0001:000444a0       _hb_setGetEOF              004454a0 f   xhb:set.obj
 0001:000444b0       _hb_setGetEpoch            004454b0 f   xhb:set.obj
 0001:000444c0       _hb_setGetEscape           004454c0 f   xhb:set.obj
 0001:000444d0       _hb_setGetEventMask        004454d0 f   xhb:set.obj
 0001:000444e0       _hb_setGetExact            004454e0 f   xhb:set.obj
 0001:000444f0       _hb_setGetExclusive        004454f0 f   xhb:set.obj
 0001:00044500       _hb_setGetExit             00445500 f   xhb:set.obj
 0001:00044510       _hb_setGetExtra            00445510 f   xhb:set.obj
 0001:00044520       _hb_setGetExtraFile        00445520 f   xhb:set.obj
 0001:00044530       _hb_setGetFixed            00445530 f   xhb:set.obj
 0001:00044540       _hb_setGetIdleRepeat       00445540 f   xhb:set.obj
 0001:00044550       _hb_setGetInsert           00445550 f   xhb:set.obj
 0001:00044560       _hb_setGetIntensity        00445560 f   xhb:set.obj
 0001:00044570       _hb_setGetPath             00445570 f   xhb:set.obj
 0001:00044580       _hb_setGetMargin           00445580 f   xhb:set.obj
 0001:00044590       _hb_setGetMBlockSize       00445590 f   xhb:set.obj
 0001:000445a0       _hb_setGetMCenter          004455a0 f   xhb:set.obj
 0001:000445b0       _hb_setGetMessage          004455b0 f   xhb:set.obj
 0001:000445c0       _hb_setGetMFileExt         004455c0 f   xhb:set.obj
 0001:000445d0       _hb_setGetOptimize         004455d0 f   xhb:set.obj
 0001:000445e0       _hb_setGetPrinter          004455e0 f   xhb:set.obj
 0001:000445f0       _hb_setGetPrintFile        004455f0 f   xhb:set.obj
 0001:00044600       _hb_setGetScoreBoard       00445600 f   xhb:set.obj
 0001:00044610       _hb_setGetScrollBreak      00445610 f   xhb:set.obj
 0001:00044620       _hb_setGetSoftSeek         00445620 f   xhb:set.obj
 0001:00044630       _hb_setGetStrictRead       00445630 f   xhb:set.obj
 0001:00044640       _hb_setGetTypeAhead        00445640 f   xhb:set.obj
 0001:00044650       _hb_setGetUnique           00445650 f   xhb:set.obj
 0001:00044660       _hb_setGetFileCase         00445660 f   xhb:set.obj
 0001:00044670       _hb_setGetDirCase          00445670 f   xhb:set.obj
 0001:00044680       _hb_setGetDirSeparator     00445680 f   xhb:set.obj
 0001:00044690       _hb_setGetVideoMode        00445690 f   xhb:set.obj
 0001:000446a0       _hb_setGetWrap             004456a0 f   xhb:set.obj
 0001:000446b0       _hb_setGetDBFLockScheme    004456b0 f   xhb:set.obj
 0001:000446c0       _hb_setGetHardCommit       004456c0 f   xhb:set.obj
 0001:000446d0       _hb_setGetForceOpt         004456d0 f   xhb:set.obj
 0001:000446e0       _hb_setGetDefExtension     004456e0 f   xhb:set.obj
 0001:000446f0       _hb_setGetEOL              004456f0 f   xhb:set.obj
 0001:00044700       _hb_setGetTrimFileName     00445700 f   xhb:set.obj
 0001:00044710       _hb_setGetOSCODEPAGE       00445710 f   xhb:set.obj
 0001:00044720       _hb_osEncodeCP             00445720 f   xhb:set.obj
 0001:000447e0       _hb_osDecodeCP             004457e0 f   xhb:set.obj
 0001:000448a0       _hb_setGetAppendError      004458a0 f   xhb:set.obj
 0001:000448b0       _hb_setGetErrorLog         004458b0 f   xhb:set.obj
 0001:000448c0       _hb_setGetTrace            004458c0 f   xhb:set.obj
 0001:000448d0       _hb_setGetTraceFile        004458d0 f   xhb:set.obj
 0001:000448e0       _hb_setGetTraceStack       004458e0 f   xhb:set.obj
 0001:000448f0       _hb_setGetErrorLoop        004458f0 f   xhb:set.obj
 0001:00044900       _hb_setGetOutputSafety     00445900 f   xhb:set.obj
 0001:00044910       _hb_setGetBackgroundTasks  00445910 f   xhb:set.obj
 0001:00044920       _hb_setGetWinPrinter       00445920 f   xhb:set.obj
 0001:00044930       _hb_setGetWinHan           00445930 f   xhb:set.obj
 0001:00044940       _hb_setGetPrinterJob       00445940 f   xhb:set.obj
 0001:00044950       _hb_setGetBackGroundTick   00445950 f   xhb:set.obj
 0001:00044960       _hb_setGetWorkareasShared  00445960 f   xhb:set.obj
 0001:000449d0       _hb_fsGetFError            004459d0 f   xhb:fserror.obj
 0001:000449e0       _hb_fsError                004459e0 f   xhb:fserror.obj
 0001:000449f0       _hb_fsOsError              004459f0 f   xhb:fserror.obj
 0001:00044a00       _hb_fsSetFError            00445a00 f   xhb:fserror.obj
 0001:00044a20       _hb_fsSetError             00445a20 f   xhb:fserror.obj
 0001:00044a40       _hb_fsSetIOError           00445a40 f   xhb:fserror.obj
 0001:00044a80       _hb_strAt                  00445a80 f   xhb:hbstr.obj
 0001:00044af0       _hb_strupr                 00445af0 f   xhb:hbstr.obj
 0001:00044b30       _hb_strlow                 00445b30 f   xhb:hbstr.obj
 0001:00044b70       _hb_strdup                 00445b70 f   xhb:hbstr.obj
 0001:00044bb0       _hb_strndup                00445bb0 f   xhb:hbstr.obj
 0001:00044c00       _hb_strnlen                00445c00 f   xhb:hbstr.obj
 0001:00044c30       _hb_strduptrim             00445c30 f   xhb:hbstr.obj
 0001:00044c90       _hb_strlentrim             00445c90 f   xhb:hbstr.obj
 0001:00044cd0       _hb_stricmp                00445cd0 f   xhb:hbstr.obj
 0001:00044d70       _hb_symcmp                 00445d70 f   xhb:hbstr.obj
 0001:00044e00       _hb_strnicmp               00445e00 f   xhb:hbstr.obj
 0001:00044ed0       _hb_xstrcat                00445ed0 f   xhb:hbstr.obj
 0001:00044f30       _hb_xstrcpy                00445f30 f   xhb:hbstr.obj
 0001:00045020       _hb_numRound               00446020 f   xhb:hbstr.obj
 0001:00045140       _hb_numInt                 00446140 f   xhb:hbstr.obj
 0001:00045170       _hb_numDecConv             00446170 f   xhb:hbstr.obj
 0001:000458d0       _hb_compStrToNum           004468d0 f   xhb:hbstr.obj
 0001:00045900       _hb_compStrToNumErr        00446900 f   xhb:hbstr.obj
 0001:00045930       _hb_valStrnToNum           00446930 f   xhb:hbstr.obj
 0001:00045960       _hb_strToNum               00446960 f   xhb:hbstr.obj
 0001:000459a0       _hb_strnToNum              004469a0 f   xhb:hbstr.obj
 0001:000459d0       _hb_strVal                 004469d0 f   xhb:hbstr.obj
 0001:00045a10       _hb_strValInt              00446a10 f   xhb:hbstr.obj
 0001:00045a80       _hb_strncpy                00446a80 f   xhb:hbstr.obj
 0001:00045ae0       _hb_strncat                00446ae0 f   xhb:hbstr.obj
 0001:00045b40       _hb_strncpyUpper           00446b40 f   xhb:hbstr.obj
 0001:00045bd0       _hb_strncpyUpperTrim       00446bd0 f   xhb:hbstr.obj
 0001:00045c90       _hb_strncpyTrim            00446c90 f   xhb:hbstr.obj
 0001:00045d20       _hb_strRemEscSeq           00446d20 f   xhb:hbstr.obj
 0001:00045f50       _hb_stripOutComments       00446f50 f   xhb:hbstr.obj
 0001:000460b0       _hb_strerror               004470b0 f   xhb:hbstr.obj
 0001:000460c0       _hb_dynsymLog              004470c0 f   xhb:dynsym.obj
 0001:00046100       _hb_symbolNew              00447100 f   xhb:dynsym.obj
 0001:00046170       _hb_dynsymNew              00447170 f   xhb:dynsym.obj
 0001:00046290       _hb_dynsymGet              00447290 f   xhb:dynsym.obj
 0001:00046360       _hb_dynsymGetCase          00447360 f   xhb:dynsym.obj
 0001:000463d0       _hb_dynsymGetCaseWithNamespaces 004473d0 f   xhb:dynsym.obj
 0001:00046440       _hb_dynsymGetWithNamespaces 00447440 f   xhb:dynsym.obj
 0001:000464b0       _hb_dynsymFindName         004474b0 f   xhb:dynsym.obj
 0001:00046530       _hb_dynsymFind             00447530 f   xhb:dynsym.obj
 0001:00046600       _hb_dynsymFindWithNamespaces 00447600 f   xhb:dynsym.obj
 0001:00046670       _hb_dynsymFindNameWithNamespaces 00447670 f   xhb:dynsym.obj
 0001:00046760       _hb_dynsymGetSymbol        00447760 f   xhb:dynsym.obj
 0001:00046780       _hb_dynsymFindSymbol       00447780 f   xhb:dynsym.obj
 0001:000467a0       _hb_dynsymSymbol           004477a0 f   xhb:dynsym.obj
 0001:000467b0       _hb_dynsymName             004477b0 f   xhb:dynsym.obj
 0001:000467c0       _hb_dynsymIsFunction       004477c0 f   xhb:dynsym.obj
 0001:000467e0       _hb_dynsymMemvarHandle     004477e0 f   xhb:dynsym.obj
 0001:000467f0       _hb_dynsymAreaHandle       004477f0 f   xhb:dynsym.obj
 0001:00046800       _hb_dynsymSetAreaHandle    00447800 f   xhb:dynsym.obj
 0001:00046810       _hb_dynsymEval             00447810 f   xhb:dynsym.obj
 0001:00046850       _hb_dynsymRelease          00447850 f   xhb:dynsym.obj
 0001:000468c0       _hb_dynsymPos              004478c0 f   xhb:dynsym.obj
 0001:000468f0       _hb_dynsymItems            004478f0 f   xhb:dynsym.obj
 0001:00046900       _hb_dynsymCount            00447900 f   xhb:dynsym.obj
 0001:00046910       _HB_FUN___DYNSCOUNT        00447910 f   xhb:dynsym.obj
 0001:00046930       _HB_FUN___DYNSGETNAME      00447930 f   xhb:dynsym.obj
 0001:00046980       _HB_FUN___DYNSGETINDEX     00447980 f   xhb:dynsym.obj
 0001:000469c0       _HB_FUN___DYNSISFUN        004479c0 f   xhb:dynsym.obj
 0001:00046a20       _HB_FUN___DYNSGETPRF       00447a20 f   xhb:dynsym.obj
 0001:00046a50       _hb_memvarsClear           00447a50 f   xhb:memvars.obj
 0001:00046ad0       _hb_memvarsInit            00447ad0 f   xhb:memvars.obj
 0001:00046b40       _hb_memvarsRelease         00447b40 f   xhb:memvars.obj
 0001:00046bf0       _hb_memvarValueBaseAddress 00447bf0 f   xhb:memvars.obj
 0001:00046c00       _hb_memvarValueNew         00447c00 f   xhb:memvars.obj
 0001:00046d00       _hb_memvarDetachLocal      00447d00 f   xhb:memvars.obj
 0001:00046db0       _hb_memvarGetPrivatesBase  00447db0 f   xhb:memvars.obj
 0001:00046dd0       _hb_memvarSetPrivatesBase  00447dd0 f   xhb:memvars.obj
 0001:00046e60       _hb_memvarValueIncRef      00447e60 f   xhb:memvars.obj
 0001:00046ed0       _hb_memvarValueDecRef      00447ed0 f   xhb:memvars.obj
 0001:00046f30       _hb_memvarValueDecGarbageRef 00447f30 f   xhb:memvars.obj
 0001:00046fa0       _hb_memvarSetValue         00447fa0 f   xhb:memvars.obj
 0001:00047080       _hb_memvarGet              00448080 f   xhb:memvars.obj
 0001:00047110       _hb_memvarGetValue         00448110 f   xhb:memvars.obj
 0001:000471a0       _hb_memvarGetRefer         004481a0 f   xhb:memvars.obj
 0001:00047300       _hb_memvarNewParameter     00448300 f   xhb:memvars.obj
 0001:00047320       _hb_memvarGetStrValuePtr   00448320 f   xhb:memvars.obj
 0001:000473d0       _hb_memvarCreateFromItem   004483d0 f   xhb:memvars.obj
 0001:00047790       _hb_memvarScope            00448790 f   xhb:memvars.obj
 0001:000478b0       _hb_memvarReleasePublic    004488b0 f   xhb:memvars.obj
 0001:00047a40       _HB_FUN___MVPUBLIC         00448a40 f   xhb:memvars.obj
 0001:00047ae0       _HB_FUN___MVPRIVATE        00448ae0 f   xhb:memvars.obj
 0001:00047b80       _HB_FUN___MVXRELEASE       00448b80 f   xhb:memvars.obj
 0001:00047c10       _HB_FUN___MVRELEASE        00448c10 f   xhb:memvars.obj
 0001:00047cb0       _HB_FUN___MVSCOPE          00448cb0 f   xhb:memvars.obj
 0001:00047d70       _HB_FUN___MVCLEAR          00448d70 f   xhb:memvars.obj
 0001:00047d80       _HB_FUN___MVDBGINFO        00448d80 f   xhb:memvars.obj
 0001:00047e80       _HB_FUN___MVEXIST          00448e80 f   xhb:memvars.obj
 0001:00047ed0       _HB_FUN___MVGET            00448ed0 f   xhb:memvars.obj
 0001:00047fd0       _HB_FUN___MVPUT            00448fd0 f   xhb:memvars.obj
 0001:00048400       _HB_FUN___MVSAVE           00449400 f   xhb:memvars.obj
 0001:000486c0       _HB_FUN___MVRESTORE        004496c0 f   xhb:memvars.obj
 0001:00048e90       _hb_memvarsIsMemvarRef     00449e90 f   xhb:memvars.obj
 0001:00048ef0       _hb_memvarGetVarHandle     00449ef0 f   xhb:memvars.obj
 0001:00048f20       _hb_memvarGetValueByHandle 00449f20 f   xhb:memvars.obj
 0001:00048fe0       _HB_FUN___MVSYMBOLINFO     00449fe0 f   xhb:memvars.obj
 0001:00049020       _hb_memvarGetValueBySym    0044a020 f   xhb:memvars.obj
 0001:00049050       _hb_i18nInit               0044a050 f   xhb:hbi18n.obj
 0001:00049130       _hb_i18nExit               0044a130 f   xhb:hbi18n.obj
 0001:00049150       _hb_i18n_scan_table        0044a150 f   xhb:hbi18n.obj
 0001:00049250       _hb_i18n_build_table_filename 0044a250 f   xhb:hbi18n.obj
 0001:00049310       _hb_i18n_read_table_header 0044a310 f   xhb:hbi18n.obj
 0001:00049400       _hb_i18n_write_table_header 0044a400 f   xhb:hbi18n.obj
 0001:000494f0       _hb_i18n_read_table        0044a4f0 f   xhb:hbi18n.obj
 0001:000496a0       _hb_i18n_read_memory_table 0044a6a0 f   xhb:hbi18n.obj
 0001:00049820       _hb_i18n_write_table       0044a820 f   xhb:hbi18n.obj
 0001:00049920       _hb_i18n_load_language     0044a920 f   xhb:hbi18n.obj
 0001:00049b30       _HB_FUN_HB_I18NLOADTABLE   0044ab30 f   xhb:hbi18n.obj
 0001:00049c70       _HB_FUN_HB_I18NSORTTABLE   0044ac70 f   xhb:hbi18n.obj
 0001:00049db0       _HB_FUN_HB_I18NSAVETABLE   0044adb0 f   xhb:hbi18n.obj
 0001:00049f00       _HB_FUN_I18N               0044af00 f   xhb:hbi18n.obj
 0001:00049f90       _HB_FUN_HB_I18NSETPATH     0044af90 f   xhb:hbi18n.obj
 0001:00049ff0       _HB_FUN_HB_I18NGETPATH     0044aff0 f   xhb:hbi18n.obj
 0001:0004a010       _HB_FUN_HB_I18NSETLANGUAGE 0044b010 f   xhb:hbi18n.obj
 0001:0004a0f0       _HB_FUN_HB_I18NGETLANGUAGE 0044b0f0 f   xhb:hbi18n.obj
 0001:0004a110       _HB_FUN_HB_I18NGETLANGUAGENAME 0044b110 f   xhb:hbi18n.obj
 0001:0004a130       _HB_FUN_HB_I18NGETBASELANGUAGE 0044b130 f   xhb:hbi18n.obj
 0001:0004a150       _HB_FUN_HB_I18NGETBASELANGUAGENAME 0044b150 f   xhb:hbi18n.obj
 0001:0004a170       _HB_FUN_HB_I18NSETBASELANGUAGE 0044b170 f   xhb:hbi18n.obj
 0001:0004a240       _HB_FUN_HB_I18NINITIALIZED 0044b240 f   xhb:hbi18n.obj
 0001:0004a270       _HB_FUN_HB_HFIND           0044b270 f   xhb:hbi18n.obj
 0001:0004ae60       _hb_fileRegister           0044be60 f   xhb:filebuf.obj
 0001:0004ae90       _hb_fileDelete             0044be90 f   xhb:filebuf.obj
 0001:0004aee0       _hb_fileExists             0044bee0 f   xhb:filebuf.obj
 0001:0004af40       _hb_fileRename             0044bf40 f   xhb:filebuf.obj
 0001:0004afa0       _hb_fileExtOpen            0044bfa0 f   xhb:filebuf.obj
 0001:0004b020       _hb_fileClose              0044c020 f   xhb:filebuf.obj
 0001:0004b030       _hb_fileLock               0044c030 f   xhb:filebuf.obj
 0001:0004b060       _hb_fileReadAt             0044c060 f   xhb:filebuf.obj
 0001:0004b080       _hb_fileWriteAt            0044c080 f   xhb:filebuf.obj
 0001:0004b0a0       _hb_fileTruncAt            0044c0a0 f   xhb:filebuf.obj
 0001:0004b0c0       _hb_fileSize               0044c0c0 f   xhb:filebuf.obj
 0001:0004b0d0       _hb_fileSeekLarge          0044c0d0 f   xhb:filebuf.obj
 0001:0004b0f0       _hb_fileWriteLarge         0044c0f0 f   xhb:filebuf.obj
 0001:0004b110       _hb_fileReadLarge          0044c110 f   xhb:filebuf.obj
 0001:0004b130       _hb_fileFlush              0044c130 f   xhb:filebuf.obj
 0001:0004b150       _hb_fileCommit             0044c150 f   xhb:filebuf.obj
 0001:0004b160       _hb_fileHandle             0044c160 f   xhb:filebuf.obj
 0001:0004b170       _hb_fileCreateTemp         0044c170 f   xhb:filebuf.obj
 0001:0004b1c0       _hb_fileCreateTempEx       0044c1c0 f   xhb:filebuf.obj
 0001:0004b210       _hb_filebufInit            0044c210 f   xhb:filebuf.obj
 0001:0004b220       _hb_vmSymbolInit_RT        0044c220 f   xhb:initsymb.obj
 0001:0004b240       _hb_releaseCPU             0044c240 f   xhb:idle.obj
 0001:0004b290       _hb_idleState              0044c290 f   xhb:idle.obj
 0001:0004b360       _hb_idleReset              0044c360 f   xhb:idle.obj
 0001:0004b390       _hb_idleShutDown           0044c390 f   xhb:idle.obj
 0001:0004b3e0       _hb_idleSleep              0044c3e0 f   xhb:idle.obj
 0001:0004b450       _HB_FUN_HB_IDLESTATE       0044c450 f   xhb:idle.obj
 0001:0004b470       _HB_FUN_HB_IDLERESET       0044c470 f   xhb:idle.obj
 0001:0004b480       _HB_FUN_HB_IDLESLEEP       0044c480 f   xhb:idle.obj
 0001:0004b4b0       _hb_idleAddFunc            0044c4b0 f   xhb:idle.obj
 0001:0004b550       _HB_FUN_HB_IDLEADD         0044c550 f   xhb:idle.obj
 0001:0004b5a0       _hb_idleDelFunc            0044c5a0 f   xhb:idle.obj
 0001:0004b6a0       _HB_FUN_HB_IDLEDEL         0044c6a0 f   xhb:idle.obj
 0001:0004b700       _HB_FUN_HB_IDLESLEEPMSEC   0044c700 f   xhb:idle.obj
 0001:0004b730       _HB_FUN_HB_IDLEWAITNOCPU   0044c730 f   xhb:idle.obj
 0001:0004b760       _hb_backgroundAddFunc      0044c760 f   xhb:bkgtsks.obj
 0001:0004b850       _hb_backgroundRun          0044c850 f   xhb:bkgtsks.obj
 0001:0004b960       _hb_backgroundRunForced    0044c960 f   xhb:bkgtsks.obj
 0001:0004b9b0       _hb_backgroundRunSingle    0044c9b0 f   xhb:bkgtsks.obj
 0001:0004ba00       _hb_backgroundReset        0044ca00 f   xhb:bkgtsks.obj
 0001:0004ba20       _hb_backgroundShutDown     0044ca20 f   xhb:bkgtsks.obj
 0001:0004ba90       _hb_backgroundDelFunc      0044ca90 f   xhb:bkgtsks.obj
 0001:0004bbd0       _hb_backgroundFind         0044cbd0 f   xhb:bkgtsks.obj
 0001:0004bc10       _hb_backgroundActive       0044cc10 f   xhb:bkgtsks.obj
 0001:0004bc40       _hb_backgroundTime         0044cc40 f   xhb:bkgtsks.obj
 0001:0004bc70       _HB_FUN_HB_BACKGROUNDRUN   0044cc70 f   xhb:bkgtsks.obj
 0001:0004bcb0       _HB_FUN_HB_BACKGROUNDRUNFORCED 0044ccb0 f   xhb:bkgtsks.obj
 0001:0004bce0       _HB_FUN_HB_BACKGROUNDRESET 0044cce0 f   xhb:bkgtsks.obj
 0001:0004bcf0       _HB_FUN_HB_BACKGROUNDADD   0044ccf0 f   xhb:bkgtsks.obj
 0001:0004bda0       _HB_FUN_HB_BACKGROUNDDEL   0044cda0 f   xhb:bkgtsks.obj
 0001:0004be00       _HB_FUN_HB_BACKGROUNDACTIVE 0044ce00 f   xhb:bkgtsks.obj
 0001:0004be70       _HB_FUN_HB_BACKGROUNDTIME  0044ce70 f   xhb:bkgtsks.obj
 0001:0004c140       _s_ConsoleHandlerRoutine@4 0044d140 f   xhb:hbserv.obj
 0001:0004c280       _HB_FUN_HB_STARTSERVICE    0044d280 f   xhb:hbserv.obj
 0001:0004c2c0       _hb_isService              0044d2c0 f   xhb:hbserv.obj
 0001:0004c2d0       _hb_serviceExit            0044d2d0 f   xhb:hbserv.obj
 0001:0004c2f0       _HB_FUN_HB_ISSERVICE       0044d2f0 f   xhb:hbserv.obj
 0001:0004c310       _HB_FUN_HB_SERVICELOOP     0044d310 f   xhb:hbserv.obj
 0001:0004c350       _HB_FUN_HB_PUSHSIGNALHANDLER 0044d350 f   xhb:hbserv.obj
 0001:0004c420       _HB_FUN_HB_POPSIGNALHANDLER 0044d420 f   xhb:hbserv.obj
 0001:0004c4d0       _HB_FUN_HB_SIGNALDESC      0044d4d0 f   xhb:hbserv.obj
 0001:0004c670       _HB_FUN_HB_SERVICEGENERATEFAULT 0044d670 f   xhb:hbserv.obj
 0001:0004c690       _HB_FUN_HB_SERVICEGENERATEFPE 0044d690 f   xhb:hbserv.obj
 0001:0004c6b0       _HB_FUN_HB_CODEPAGE_EN     0044d6b0 f   xhb:cdpapi.obj
 0001:0004c6c0       _hb_cdppage                0044d6c0 f   xhb:cdpapi.obj
 0001:0004c9e0       _hb_cdpRegister            0044d9e0 f   xhb:cdpapi.obj
 0001:0004cf40       _hb_cdpFind                0044df40 f   xhb:cdpapi.obj
 0001:0004cf70       _hb_cdpcharsetFind         0044df70 f   xhb:cdpapi.obj
 0001:0004cfc0       _hb_cdpSelect              0044dfc0 f   xhb:cdpapi.obj
 0001:0004cfe0       _hb_cdpID                  0044dfe0 f   xhb:cdpapi.obj
 0001:0004d000       _hb_cdpSelectID            0044e000 f   xhb:cdpapi.obj
 0001:0004d030       _hb_cdpTranslate           0044e030 f   xhb:cdpapi.obj
 0001:0004d190       _hb_cdpnTranslate          0044e190 f   xhb:cdpapi.obj
 0001:0004d2f0       _hb_cdpGetU16              0044e2f0 f   xhb:cdpapi.obj
 0001:0004d340       _hb_cdpGetChar             0044e340 f   xhb:cdpapi.obj
 0001:0004d3d0       _hb_cdpUTF8StringSubstr    0044e3d0 f   xhb:cdpapi.obj
 0001:0004d4d0       _hb_cdpUTF8StringPeek      0044e4d0 f   xhb:cdpapi.obj
 0001:0004d570       _hb_cdpUTF8StringLength    0044e570 f   xhb:cdpapi.obj
 0001:0004d5c0       _hb_cdpStringInUTF8Length  0044e5c0 f   xhb:cdpapi.obj
 0001:0004d600       _hb_cdpStringInUTF8Length2 0044e600 f   xhb:cdpapi.obj
 0001:0004d650       _hb_cdpUTF8ToStrn          0044e650 f   xhb:cdpapi.obj
 0001:0004d750       _hb_cdpGetFromUTF8         0044e750 f   xhb:cdpapi.obj
 0001:0004d800       _hb_cdpStrnToUTF8          0044e800 f   xhb:cdpapi.obj
 0001:0004d910       _hb_cdpStrnToUTF8n         0044e910 f   xhb:cdpapi.obj
 0001:0004da80       _hb_cdpStrnToU16           0044ea80 f   xhb:cdpapi.obj
 0001:0004db80       _hb_cdpnDupLen             0044eb80 f   xhb:cdpapi.obj
 0001:0004dbf0       _hb_cdpnDup2Len            0044ebf0 f   xhb:cdpapi.obj
 0001:0004dc70       _hb_cdpDup                 0044ec70 f   xhb:cdpapi.obj
 0001:0004dcb0       _hb_cdpnDup                0044ecb0 f   xhb:cdpapi.obj
 0001:0004dde0       _hb_cdpnDup2               0044ede0 f   xhb:cdpapi.obj
 0001:0004df10       _hb_cdpnDup3               0044ef10 f   xhb:cdpapi.obj
 0001:0004e0b0       _hb_cdpchrcmp              0044f0b0 f   xhb:cdpapi.obj
 0001:0004e1e0       _hb_cdpcmp                 0044f1e0 f   xhb:cdpapi.obj
 0001:0004e5f0       _hb_cdpicmp                0044f5f0 f   xhb:cdpapi.obj
 0001:0004e970       _hb_cdpReleaseAll          0044f970 f   xhb:cdpapi.obj
 0001:0004ea60       _HB_FUN_HB_CDPSELECT       0044fa60 f   xhb:cdpapi.obj
 0001:0004eaa0       _HB_FUN_HB_CDPUNIID        0044faa0 f   xhb:cdpapi.obj
 0001:0004ead0       _HB_FUN_HB_SETCODEPAGE     0044fad0 f   xhb:cdpapi.obj
 0001:0004eae0       _HB_FUN_HB_TRANSLATE       0044fae0 f   xhb:cdpapi.obj
 0001:0004ebd0       _HB_FUN_HB_CDPLIST         0044fbd0 f   xhb:cdpapi.obj
 0001:0004ec20       _HB_FUN_HB_STRTOUTF8       0044fc20 f   xhb:cdpapi.obj
 0001:0004ece0       _HB_FUN_HB_UTF8CHR         0044fce0 f   xhb:cdpapi.obj
 0001:0004ed40       _HB_FUN_HB_UTF8TOSTR       0044fd40 f   xhb:cdpapi.obj
 0001:0004ee30       _HB_FUN_HB_UTF8SUBSTR      0044fe30 f   xhb:cdpapi.obj
 0001:0004ef50       _HB_FUN_HB_UTF8LEFT        0044ff50 f   xhb:cdpapi.obj
 0001:0004eff0       _HB_FUN_HB_UTF8RIGHT       0044fff0 f   xhb:cdpapi.obj
 0001:0004f0c0       _HB_FUN_HB_UTF8PEEK        004500c0 f   xhb:cdpapi.obj
 0001:0004f150       _HB_FUN_HB_UTF8POKE        00450150 f   xhb:cdpapi.obj
 0001:0004f320       _HB_FUN_HB_UTF8STUFF       00450320 f   xhb:cdpapi.obj
 0001:0004f4a0       _HB_FUN_HB_UTF8LEN         004504a0 f   xhb:cdpapi.obj
 0001:0004f4f0       _HB_FUN_HB_UTF8STRTRAN     004504f0 f   xhb:cdpapi.obj
 0001:0004f500       _hb_inkey                  00450500 f   xhb:inkeyapi.obj
 0001:0004f540       _hb_inkeyPut               00450540 f   xhb:inkeyapi.obj
 0001:0004f570       _hb_inkeyLast              00450570 f   xhb:inkeyapi.obj
 0001:0004f5a0       _hb_inkeyNext              004505a0 f   xhb:inkeyapi.obj
 0001:0004f5d0       _hb_inkeyPoll              004505d0 f   xhb:inkeyapi.obj
 0001:0004f5f0       _hb_inkeySetLast           004505f0 f   xhb:inkeyapi.obj
 0001:0004f620       _hb_inkeySetText           00450620 f   xhb:inkeyapi.obj
 0001:0004f650       _hb_inkeyReset             00450650 f   xhb:inkeyapi.obj
 0001:0004f670       _hb_inkeySetCancelKeys     00450670 f   xhb:inkeyapi.obj
 0001:0004f680       _hb_codeblockNew           00450680 f   xhb:codebloc.obj
 0001:0004f830       _hb_codeblockMacroNew      00450830 f   xhb:codebloc.obj
 0001:0004f890       _hb_codeblockDelete        00450890 f   xhb:codebloc.obj
 0001:0004f960       _hb_codeblockDeleteGarbage 00450960 f   xhb:codebloc.obj
 0001:0004fa30       _hb_codeblockGetVar        00450a30 f   xhb:codebloc.obj
 0001:0004fa80       _hb_codeblockGetRef        00450a80 f   xhb:codebloc.obj
 0001:0004fb50       _hb_macroDelete            00450b50 f   xhb:macro.obj
 0001:0004fcd0       _hb_macroRun               00450cd0 f   xhb:macro.obj
 0001:0004fe20       _hb_macroIsIdent           00450e20 f   xhb:macro.obj
 0001:0004fef0       _hb_macroTextSubst         00450ef0 f   xhb:macro.obj
 0001:00050150       _hb_macroGetValue          00451150 f   xhb:macro.obj
 0001:00050360       _hb_macroSetValue          00451360 f   xhb:macro.obj
 0001:00050480       _hb_macroPopAliasedValue   00451480 f   xhb:macro.obj
 0001:000504a0       _hb_macroPushAliasedValue  004514a0 f   xhb:macro.obj
 0001:000507a0       _hb_macroExpandString      004517a0 f   xhb:macro.obj
 0001:000507e0       _hb_macroCompile           004517e0 f   xhb:macro.obj
 0001:00050850       _HB_FUN_HB_MACROCOMPILE    00451850 f   xhb:macro.obj
 0001:00050980       _hb_macroPushSymbol        00451980 f   xhb:macro.obj
 0001:00050b00       _hb_macroTextValue         00451b00 f   xhb:macro.obj
 0001:00050b60       _hb_macroGetType           00451b60 f   xhb:macro.obj
 0001:00050d40       _hb_macroSetMacro          00451d40 f   xhb:macro.obj
 0001:00050d80       _HB_FUN_HB_SETMACRO        00451d80 f   xhb:macro.obj
 0001:00050f50       _hb_compLocalVarGetPos     00451f50 f   xhb:macro.obj
 0001:00050fa0       _hb_compGenJump            00451fa0 f   xhb:macro.obj
 0001:00050ff0       _hb_compGenJumpFalse       00451ff0 f   xhb:macro.obj
 0001:00051040       _hb_compGenJumpThere       00452040 f   xhb:macro.obj
 0001:000510a0       _hb_compGenJumpHere        004520a0 f   xhb:macro.obj
 0001:000510c0       _hb_compGenJumpTrue        004520c0 f   xhb:macro.obj
 0001:00051110       _hb_compMemvarGenPCode     00452110 f   xhb:macro.obj
 0001:00051180       _hb_compGenPushSymbol      00452180 f   xhb:macro.obj
 0001:000512c0       _hb_compGenPushLong        004522c0 f   xhb:macro.obj
 0001:00051460       _hb_compGenPushDate        00452460 f   xhb:macro.obj
 0001:000514d0       _hb_compGenMessage         004524d0 f   xhb:macro.obj
 0001:00051510       _hb_compGenMessageData     00452510 f   xhb:macro.obj
 0001:00051570       _hb_compGenPopVar          00452570 f   xhb:macro.obj
 0001:000515c0       _hb_compGenPopAliasedVar   004525c0 f   xhb:macro.obj
 0001:000516f0       _hb_compGenPushVar         004526f0 f   xhb:macro.obj
 0001:00051740       _hb_compGenPushVarRef      00452740 f   xhb:macro.obj
 0001:00051790       _hb_compGenPushMemVarRef   00452790 f   xhb:macro.obj
 0001:000517b0       _hb_compGenPushAliasedVar  004527b0 f   xhb:macro.obj
 0001:000518f0       _hb_compGenPushLogical     004528f0 f   xhb:macro.obj
 0001:00051920       _hb_compGenPushDouble      00452920 f   xhb:macro.obj
 0001:00051960       _hb_compGenPushFunCall     00452960 f   xhb:macro.obj
 0001:000519b0       _hb_compGenPushString      004529b0 f   xhb:macro.obj
 0001:000519f0       _hb_compGenPCode1          004529f0 f   xhb:macro.obj
 0001:00051a40       _hb_compGenPCode2          00452a40 f   xhb:macro.obj
 0001:00051aa0       _hb_compGenPCode3          00452aa0 f   xhb:macro.obj
 0001:00051b10       _hb_compGenPCode4          00452b10 f   xhb:macro.obj
 0001:00051b90       _hb_compGenPCodeN          00452b90 f   xhb:macro.obj
 0001:00051bf0       _hb_macroError             00452bf0 f   xhb:macro.obj
 0001:00051c10       _hb_compCodeBlockStart     00452c10 f   xhb:macro.obj
 0001:00051c60       _hb_compCodeBlockEnd       00452c60 f   xhb:macro.obj
 0001:00051d20       _hb_tracestate             00452d20 f   xhb:hbtrace.obj
 0001:00051d50       _hb_tracelevel             00452d50 f   xhb:hbtrace.obj
 0001:00051d80       _hb_tr_level               00452d80 f   xhb:hbtrace.obj
 0001:00051e80       _hb_tr_trace               00452e80 f   xhb:hbtrace.obj
 0001:00052c70       _hb_printf_params          00453c70 f   xhb:hbprintf.obj
 0001:00053020       _hb_vsnprintf              00454020 f   xhb:hbprintf.obj
 0001:00054510       _hb_snprintf               00455510 f   xhb:hbprintf.obj
 0001:00054540       _hb_dateEncode             00455540 f   xhb:hbdate.obj
 0001:00054670       _hb_dateDecode             00455670 f   xhb:hbdate.obj
 0001:00054770       _hb_dateStrPut             00455770 f   xhb:hbdate.obj
 0001:000548a0       _hb_dateStrGet             004558a0 f   xhb:hbdate.obj
 0001:00054970       _hb_dateDecStr             00455970 f   xhb:hbdate.obj
 0001:000549d0       _hb_dateEncStr             004559d0 f   xhb:hbdate.obj
 0001:00054a10       _hb_dateFormat             00455a10 f   xhb:hbdate.obj
 0001:00054dc0       _hb_dateJulianDOW          00455dc0 f   xhb:hbdate.obj
 0001:00054df0       _hb_timeFormat             00455df0 f   xhb:hbdate.obj
 0001:00055330       _hb_datetimeFormat         00456330 f   xhb:hbdate.obj
 0001:000553b0       _hb_dateDOW                004563b0 f   xhb:hbdate.obj
 0001:00055440       _hb_dateToday              00456440 f   xhb:hbdate.obj
 0001:00055470       _hb_dateTimeStr            00456470 f   xhb:hbdate.obj
 0001:000554b0       _hb_dbaselockEncode        004564b0 f   xhb:hbdate.obj
 0001:00055500       _hb_timeStampEncode        00456500 f   xhb:hbdate.obj
 0001:00055560       _hb_timeStampDecode        00456560 f   xhb:hbdate.obj
 0001:00055640       _hb_timeStampStr           00456640 f   xhb:hbdate.obj
 0001:000556a0       _hb_dateTimeStampStr       004566a0 f   xhb:hbdate.obj
 0001:00055720       _hb_dateTimeStampStrGet    00456720 f   xhb:hbdate.obj
 0001:00055900       _hb_dateTime               00456900 f   xhb:hbdate.obj
 0001:00055940       _hb_timeEncodeSec          00456940 f   xhb:hbdate.obj
 0001:000559a0       _hb_timeEncode             004569a0 f   xhb:hbdate.obj
 0001:00055a10       _hb_timeDecode             00456a10 f   xhb:hbdate.obj
 0001:00055aa0       _hb_timeDecodeSec          00456aa0 f   xhb:hbdate.obj
 0001:00055af0       _hb_timeStrGet             00456af0 f   xhb:hbdate.obj
 0001:00055c30       _hb_datetimeEncode         00456c30 f   xhb:hbdate.obj
 0001:00055d60       _hb_datetimeDecode         00456d60 f   xhb:hbdate.obj
 0001:00055da0       _hb_timeEncStr             00456da0 f   xhb:hbdate.obj
 0001:00055e50       _hb_timeDecStr             00456e50 f   xhb:hbdate.obj
 0001:00055ea0       _hb_datetimeEncStr         00456ea0 f   xhb:hbdate.obj
 0001:00055ef0       _hb_datetimeDecStr         00456ef0 f   xhb:hbdate.obj
 0001:00055f20       _hb_datetimePack           00456f20 f   xhb:hbdate.obj
 0001:00055f40       _hb_datetimePackInSec      00456f40 f   xhb:hbdate.obj
 0001:00055f60       _hb_datetimeUnpack         00456f60 f   xhb:hbdate.obj
 0001:00055fc0       _hb_timeStampUnpackDT      00456fc0 f   xhb:hbdate.obj
 0001:00056030       _hb_comp_datetimeEncStr    00457030 f   xhb:hbdate.obj
 0001:00056060       _hb_comp_datetimeDecStr    00457060 f   xhb:hbdate.obj
 0001:000560a0       _hb_comp_datetimeEncode    004570a0 f   xhb:hbdate.obj
 0001:00056120       _HB_FUN_CLIPPER520         00457120 f   xhb:harbinit.obj
 0001:00056140       _HB_FUN_CLIPPER530         00457140 f   xhb:harbinit.obj
 0001:00056160       _HB_FUN_CLIPINIT           00457160 f   xhb:harbinit.obj
 0001:00056180       _HB_FUN___SETHELPK         00457180 f   xhb:harbinit.obj
 0001:000561a0       _HB_FUN___BREAKBLOCK       004571a0 f   xhb:harbinit.obj
 0001:000561c0       _HB_FUN___ERRORBLOCK       004571c0 f   xhb:harbinit.obj
 0001:000561e0       _HB_FUN___MINIMALERRORHANDLER 004571e0 f   xhb:harbinit.obj
 0001:00056200       _HB_FUN_SYSINIT            00457200 f   xhb:harbinit.obj
 0001:00056250       _hb_evalNew                00457250 f   xhb:eval.obj
 0001:00056290       _hb_evalPutParam           00457290 f   xhb:eval.obj
 0001:000562d0       _hb_evalLaunch             004572d0 f   xhb:eval.obj
 0001:000563f0       _hb_evalRelease            004573f0 f   xhb:eval.obj
 0001:00056450       _hb_itemDo                 00457450 f   xhb:eval.obj
 0001:000565f0       _hb_itemDoC                004575f0 f   xhb:eval.obj
 0001:00056690       _hb_itemDoCRef             00457690 f   xhb:eval.obj
 0001:00056790       _hb_evalBlock0             00457790 f   xhb:eval.obj
 0001:000567c0       _hb_evalBlock1             004577c0 f   xhb:eval.obj
 0001:000567f0       _hb_evalBlock              004577f0 f   xhb:eval.obj
 0001:00056840       _HB_FUN_HB_EXECFROMARRAY   00457840 f   xhb:eval.obj
 0001:00056c80       _hb_execFromArray          00457c80 f   xhb:eval.obj
 0001:00056e40       _HB_FUN_HB_EXEC            00457e40 f   xhb:eval.obj
 0001:00056fe0       _HB_FUN_HBOBJECT           00457fe0 f   xhb:tobject.obj
 0001:000570a0       _HB_FUN_TASSOCIATIVEARRAY  004580a0 f   xhb:tobject.obj
 0001:000570c0       _HB_FUN_HASHENTRY          004580c0 f   xhb:tobject.obj
 0001:00057120       _HB_FUN_HASHADDMEMBER      00458120 f   xhb:tobject.obj
 0001:00057200       _HB_FUN_THROW              00458200 f   xhb:throw.obj
 0001:000572d0       _HB_FUN___OBJHASDATA       004582d0 f   xhb:objfunc.obj
 0001:000572f0       _HB_FUN___OBJHASMETHOD     004582f0 f   xhb:objfunc.obj
 0001:00057310       _HB_FUN___OBJGETMSGLIST    00458310 f   xhb:objfunc.obj
 0001:00057330       _HB_FUN___OBJGETMSGFULLLIST 00458330 f   xhb:objfunc.obj
 0001:00057350       _HB_FUN___OBJGETMETHODLIST 00458350 f   xhb:objfunc.obj
 0001:00057370       _HB_FUN___OBJGETVALUELIST  00458370 f   xhb:objfunc.obj
 0001:00057390       _HB_FUN___OBJGETVALUEFULLLIST 00458390 f   xhb:objfunc.obj
 0001:000573b0       _HB_FUN___OBJGETVALUEDIFF  004583b0 f   xhb:objfunc.obj
 0001:000573d0       _HB_FUN___OBJGETDERIVEDDIFF 004583d0 f   xhb:objfunc.obj
 0001:000573f0       _HB_FUN___OBJSETVALUELIST  004583f0 f   xhb:objfunc.obj
 0001:00057410       _HB_FUN___OBJADDMETHOD     00458410 f   xhb:objfunc.obj
 0001:00057430       _HB_FUN___OBJADDINLINE     00458430 f   xhb:objfunc.obj
 0001:00057450       _HB_FUN___OBJADDDATA       00458450 f   xhb:objfunc.obj
 0001:00057470       _HB_FUN___OBJADDACCESSASSIGN 00458470 f   xhb:objfunc.obj
 0001:00057490       _HB_FUN___OBJMODMETHOD     00458490 f   xhb:objfunc.obj
 0001:000574b0       _HB_FUN___OBJMODINLINE     004584b0 f   xhb:objfunc.obj
 0001:000574d0       _HB_FUN___OBJDELMETHOD     004584d0 f   xhb:objfunc.obj
 0001:000574f0       _HB_FUN___OBJDELINLINE     004584f0 f   xhb:objfunc.obj
 0001:00057510       _HB_FUN___OBJSETMETHOD     00458510 f   xhb:objfunc.obj
 0001:00057530       _HB_FUN___OBJDELDATA       00458530 f   xhb:objfunc.obj
 0001:00057550       _HB_FUN___OBJDERIVEDFROM   00458550 f   xhb:objfunc.obj
 0001:00057620       _HB_FUN_HB_BITAND          00458620 f   xhb:hbbitf.obj
 0001:000576a0       _HB_FUN_HB_BITOR           004586a0 f   xhb:hbbitf.obj
 0001:00057720       _HB_FUN_HB_BITXOR          00458720 f   xhb:hbbitf.obj
 0001:000577a0       _HB_FUN_HB_BITNOT          004587a0 f   xhb:hbbitf.obj
 0001:00057800       _HB_FUN_HB_BITISSET        00458800 f   xhb:hbbitf.obj
 0001:00057860       _HB_FUN_HB_BITSET          00458860 f   xhb:hbbitf.obj
 0001:000578e0       _HB_FUN_HB_BITRESET        004588e0 f   xhb:hbbitf.obj
 0001:00057970       _HB_FUN_HB_BITSHIFT        00458970 f   xhb:hbbitf.obj
 0001:00057c40       _hb_selectWriteExceptSocket 00458c40 f   xhb:inet.obj
 0001:000580b0       _HB_FUN_INETINIT           004590b0 f   xhb:inet.obj
 0001:000580f0       _HB_FUN_INETCLEANUP        004590f0 f   xhb:inet.obj
 0001:00058110       _HB_FUN_INETCREATE         00459110 f   xhb:inet.obj
 0001:00058190       _HB_FUN_INETCLOSE          00459190 f   xhb:inet.obj
 0001:00058220       _HB_FUN_INETDESTROY        00459220 f   xhb:inet.obj
 0001:00058230       _HB_FUN_INETSTATUS         00459230 f   xhb:inet.obj
 0001:000582a0       _HB_FUN_INETERRORCODE      004592a0 f   xhb:inet.obj
 0001:00058300       _HB_FUN_INETERRORDESC      00459300 f   xhb:inet.obj
 0001:00058360       _HB_FUN_INETCLEARERROR     00459360 f   xhb:inet.obj
 0001:000583c0       _HB_FUN_INETCOUNT          004593c0 f   xhb:inet.obj
 0001:00058420       _HB_FUN_INETADDRESS        00459420 f   xhb:inet.obj
 0001:00058490       _HB_FUN_INETPORT           00459490 f   xhb:inet.obj
 0001:00058500       _HB_FUN_INETSETTIMEOUT     00459500 f   xhb:inet.obj
 0001:00058580       _HB_FUN_INETGETTIMEOUT     00459580 f   xhb:inet.obj
 0001:000585e0       _HB_FUN_INETCLEARTIMEOUT   004595e0 f   xhb:inet.obj
 0001:00058630       _HB_FUN_INETSETTIMELIMIT   00459630 f   xhb:inet.obj
 0001:000586b0       _HB_FUN_INETGETTIMELIMIT   004596b0 f   xhb:inet.obj
 0001:00058710       _HB_FUN_INETCLEARTIMELIMIT 00459710 f   xhb:inet.obj
 0001:00058760       _HB_FUN_INETSETPERIODCALLBACK 00459760 f   xhb:inet.obj
 0001:000587f0       _HB_FUN_INETGETPERIODCALLBACK 004597f0 f   xhb:inet.obj
 0001:00058860       _HB_FUN_INETCLEARPERIODCALLBACK 00459860 f   xhb:inet.obj
 0001:000588c0       _HB_FUN_INETGETSNDBUFSIZE  004598c0 f   xhb:inet.obj
 0001:00058950       _HB_FUN_INETGETRCVBUFSIZE  00459950 f   xhb:inet.obj
 0001:000589e0       _HB_FUN_INETSETSNDBUFSIZE  004599e0 f   xhb:inet.obj
 0001:00058a70       _HB_FUN_INETSETRCVBUFSIZE  00459a70 f   xhb:inet.obj
 0001:00058d50       _HB_FUN_INETRECV           00459d50 f   xhb:inet.obj
 0001:00058d70       _HB_FUN_INETRECVALL        00459d70 f   xhb:inet.obj
 0001:00059070       _HB_FUN_INETRECVLINE       0045a070 f   xhb:inet.obj
 0001:00059090       _HB_FUN_INETRECVENDBLOCK   0045a090 f   xhb:inet.obj
 0001:00059600       _HB_FUN_INETDATAREADY      0045a600 f   xhb:inet.obj
 0001:000599a0       _HB_FUN_INETSEND           0045a9a0 f   xhb:inet.obj
 0001:000599c0       _HB_FUN_INETSENDALL        0045a9c0 f   xhb:inet.obj
 0001:000599e0       _HB_FUN_INETGETHOSTS       0045a9e0 f   xhb:inet.obj
 0001:00059ab0       _HB_FUN_INETGETALIAS       0045aab0 f   xhb:inet.obj
 0001:00059b80       _HB_FUN_INETSERVER         0045ab80 f   xhb:inet.obj
 0001:00059df0       _HB_FUN_INETACCEPT         0045adf0 f   xhb:inet.obj
 0001:00059f80       _HB_FUN_INETCONNECT        0045af80 f   xhb:inet.obj
 0001:0005a150       _HB_FUN_INETCONNECTIP      0045b150 f   xhb:inet.obj
 0001:0005a310       _HB_FUN_INETDGRAMBIND      0045b310 f   xhb:inet.obj
 0001:0005a590       _HB_FUN_INETDGRAM          0045b590 f   xhb:inet.obj
 0001:0005a670       _HB_FUN_INETDGRAMSEND      0045b670 f   xhb:inet.obj
 0001:0005a820       _HB_FUN_INETDGRAMRECV      0045b820 f   xhb:inet.obj
 0001:0005aa10       _HB_FUN_INETCRLF           0045ba10 f   xhb:inet.obj
 0001:0005aa30       _HB_FUN_INETISSOCKET       0045ba30 f   xhb:inet.obj
 0001:0005aab0       _HB_FUN_TURL               0045bab0 f   xhb:url.obj
 0001:0005b1e0       _HB_FUN_CTOD               0045c1e0 f   xhb:dateshb.obj
 0001:0005b270       _HB_FUN_DTOC               0045c270 f   xhb:dateshb.obj
 0001:0005b2e0       _HB_FUN_DTOS               0045c2e0 f   xhb:dateshb.obj
 0001:0005b340       _HB_FUN_STOD               0045c340 f   xhb:dateshb.obj
 0001:0005b3b0       _HB_FUN_YEAR               0045c3b0 f   xhb:dateshb.obj
 0001:0005b420       _HB_FUN_MONTH              0045c420 f   xhb:dateshb.obj
 0001:0005b490       _HB_FUN_DAY                0045c490 f   xhb:dateshb.obj
 0001:0005b500       _HB_FUN_TIME               0045c500 f   xhb:dateshb.obj
 0001:0005b530       _HB_FUN_TIMEOFDAY          0045c530 f   xhb:dateshb.obj
 0001:0005b5c0       _HB_FUN_DATE               0045c5c0 f   xhb:dateshb.obj
 0001:0005b600       _HB_FUN_DOW                0045c600 f   xhb:dateshb.obj
 0001:0005b660       _HB_FUN_DATETIME           0045c660 f   xhb:dateshb.obj
 0001:0005b750       _HB_FUN_TTOD               0045c750 f   xhb:dateshb.obj
 0001:0005b7a0       _HB_FUN_TTOS               0045c7a0 f   xhb:dateshb.obj
 0001:0005b800       _HB_FUN_TTOC               0045c800 f   xhb:dateshb.obj
 0001:0005b8e0       _HB_FUN_HOUR               0045c8e0 f   xhb:dateshb.obj
 0001:0005b950       _HB_FUN_MINUTE             0045c950 f   xhb:dateshb.obj
 0001:0005b9c0       _HB_FUN_SECS               0045c9c0 f   xhb:dateshb.obj
 0001:0005ba20       _HB_FUN_CTOT               0045ca20 f   xhb:dateshb.obj
 0001:0005bbb0       _HB_FUN_STOT               0045cbb0 f   xhb:dateshb.obj
 0001:0005bc80       _HB_FUN_HMS2D              0045cc80 f   xhb:dateshb.obj
 0001:0005bd20       _HB_FUN_SPRINTF            0045cd20 f   xhb:sprintf.obj
 0001:0005bea0       _HB_FUN_BUILDUSERPASSSTRING 0045cea0 f   xhb:base64x.obj
 0001:0005bf20       _HB_FUN_HB_BASE64          0045cf20 f   xhb:base64x.obj
 0001:0005bf60       _hb_spFile                 0045cf60 f   xhb:spfiles.obj
 0001:0005c070       _hb_spFileExists           0045d070 f   xhb:spfiles.obj
 0001:0005c180       _hb_spOpen                 0045d180 f   xhb:spfiles.obj
 0001:0005c1d0       _hb_spCreate               0045d1d0 f   xhb:spfiles.obj
 0001:0005c230       _hb_spCreateEx             0045d230 f   xhb:spfiles.obj
 0001:0005c290       _hb_fsFile                 0045d290 f   xhb:file.obj
 0001:0005c380       _hb_fsIsDirectory          0045d380 f   xhb:file.obj
 0001:0005c430       _HB_FUN_CHR                0045d430 f   xhb:chrasc.obj
 0001:0005c490       _HB_FUN_ASC                0045d490 f   xhb:chrasc.obj
 0001:0005c530       _HB_FUN_SCALAROBJECT       0045d530 f   xhb:tscalar.obj
 0001:0005c5b0       _HB_FUN__ARRAY             0045d5b0 f   xhb:tscalar.obj
 0001:0005c6d0       _HB_FUN__HASH              0045d6d0 f   xhb:tscalar.obj
 0001:0005c770       _HB_FUN__BLOCK             0045d770 f   xhb:tscalar.obj
 0001:0005c790       _HB_FUN__CHARACTER         0045d790 f   xhb:tscalar.obj
 0001:0005c7b0       _HB_FUN__DATE              0045d7b0 f   xhb:tscalar.obj
 0001:0005c7d0       _HB_FUN__LOGICAL           0045d7d0 f   xhb:tscalar.obj
 0001:0005c7f0       _HB_FUN__NIL               0045d7f0 f   xhb:tscalar.obj
 0001:0005c810       _HB_FUN__NUMERIC           0045d810 f   xhb:tscalar.obj
 0001:0005c830       _HB_FUN__POINTER           0045d830 f   xhb:tscalar.obj
 0001:0005c850       _HB_FUN_UNREF              0045d850 f   xhb:tscalar.obj
 0001:0005c8f0       _HB_FUN_TIP_GETENCODER     0045d8f0 f   xhb:encoder.obj
 0001:0005c910       _HB_FUN_TIPENCODER         0045d910 f   xhb:encoder.obj
 0001:0005c9b0       _HB_FUN_HB_SETDISPCP       0045d9b0 f   xhb:gtfunc.obj
 0001:0005ca60       _HB_FUN_HB_SETKEYCP        0045da60 f   xhb:gtfunc.obj
 0001:0005cac0       _HB_FUN_HB_SETTERMCP       0045dac0 f   xhb:gtfunc.obj
 0001:0005cba0       _HB_FUN_HB_GTINFO          0045dba0 f   xhb:gtfunc.obj
 0001:0005cc20       _HB_FUN_HB_GTVERSION       0045dc20 f   xhb:gtfunc.obj
 0001:0005cc40       _HB_FUN_HB_GTALERT         0045dc40 f   xhb:gtfunc.obj
 0001:0005cd10       _HB_FUN_HB_GFXPRIMITIVE    0045dd10 f   xhb:gtfunc.obj
 0001:0005cde0       _HB_FUN_HB_GFXTEXT         0045dde0 f   xhb:gtfunc.obj
 0001:0005cea0       _hb_strEmpty               0045dea0 f   xhb:strings.obj
 0001:0005cee0       _regerror                  0045dee0 f   xhb:pcreposix.obj
 0001:0005cfb0       _regfree                   0045dfb0 f   xhb:pcreposix.obj
 0001:0005cfd0       _regcomp                   0045dfd0 f   xhb:pcreposix.obj
 0001:0005d0b0       _regexec                   0045e0b0 f   xhb:pcreposix.obj
 0001:0005d310       _HB_PCREPOS_LIBRARY        0045e310 f   xhb:pcreposix.obj
 0001:0005d340       _pcre_version              0045e340 f   xhb:pcre_version.obj
 0001:0005d370       _HB_FUN_HB_LANG_EN         0045e370 f   xhb:msgen.obj
 0001:0005d390       _hb_fopen                  0045e390 f   xhb:hbfopen.obj
 0001:0005d3e0       _hb_getenv                 0045e3e0 f   xhb:hbgete.obj
 0001:0005d420       _hb_verPlatform            0045e420 f   xhb:hbver.obj
 0001:0005d860       _hb_iswinnt                0045e860 f   xhb:hbver.obj
 0001:0005d8c0       _hb_iswince                0045e8c0 f   xhb:hbver.obj
 0001:0005d8d0       _hb_verCompiler            0045e8d0 f   xhb:hbver.obj
 0001:0005d9a0       _hb_verHarbour             0045e9a0 f   xhb:hbver.obj
 0001:0005d9e0       _hb_verPCode               0045e9e0 f   xhb:hbver.obj
 0001:0005da30       _hb_verBuildInfo           0045ea30 f   xhb:hbver.obj
 0001:0005e380       _hb_builddate              0045f380 f   xhb:hbver.obj
 0001:0005e3c0       _hb_credits                0045f3c0 f   xhb:hbver.obj
 0001:0005e3d0       _GetOldesFile              0045f3d0 f   xhb:hbffind.obj
 0001:0005e4c0       _hb_fsAttrFromRaw          0045f4c0 f   xhb:hbffind.obj
 0001:0005e5a0       _hb_fsAttrToRaw            0045f5a0 f   xhb:hbffind.obj
 0001:0005e680       _hb_fsAttrEncode           0045f680 f   xhb:hbffind.obj
 0001:0005e750       _hb_fsAttrDecode           0045f750 f   xhb:hbffind.obj
 0001:0005eaa0       _hb_fsFindFirst            0045faa0 f   xhb:hbffind.obj
 0001:0005ecf0       _hb_fsFindNext             0045fcf0 f   xhb:hbffind.obj
 0001:0005ed70       _hb_fsFindClose            0045fd70 f   xhb:hbffind.obj
 0001:0005edd0       _hb_fsAddSearchPath        0045fdd0 f   xhb:hbfsapi.obj
 0001:0005ee70       _hb_fsFreeSearchPath       0045fe70 f   xhb:hbfsapi.obj
 0001:0005eeb0       _hb_fsFNameSplit           0045feb0 f   xhb:hbfsapi.obj
 0001:0005f000       _hb_fsFNameMerge           00460000 f   xhb:hbfsapi.obj
 0001:0005f140       _hb_fsNameExists           00460140 f   xhb:hbfsapi.obj
 0001:0005f1a0       _hb_fsFileExists           004601a0 f   xhb:hbfsapi.obj
 0001:0005f210       _hb_fsDirExists            00460210 f   xhb:hbfsapi.obj
 0001:0005f280       _hb_fsMaxFilesError        00460280 f   xhb:hbfsapi.obj
 0001:0005f2a0       _hb_gt_Base                004602a0 f   xhb:hbgtcore.obj
 0001:000639d0       _hb_gt_FindDefault         004649d0 f   xhb:hbgtcore.obj
 0001:00063a40       _hb_gtSetDefault           00464a40 f   xhb:hbgtcore.obj
 0001:00063a70       _hb_gtRegister             00464a70 f   xhb:hbgtcore.obj
 0001:00063ab0       _hb_gtLoad                 00464ab0 f   xhb:hbgtcore.obj
 0001:00063c20       _hb_gtUnLoad               00464c20 f   xhb:hbgtcore.obj
 0001:00063c70       _hb_gtStartupInit          00464c70 f   xhb:hbgtcore.obj
 0001:00063d90       _HB_FUN_HB_GT_NUL          00464d90 f   xhb:hbgtcore.obj
 0001:00063da0       _HB_FUN_HB_GT_NUL_DEFAULT  00464da0 f   xhb:hbgtcore.obj
 0001:00063db0       _hb_fsFSize                00464db0 f   xhb:fssize.obj
 0001:00063ea0       _HB_FUN_HB_FSIZE           00464ea0 f   xhb:fssize.obj
 0001:00063f20       _hb_isLegacyDevice         00464f20 f   xhb:tprinter.obj
 0001:00063fa0       _hb_PrinterExists          00464fa0 f   xhb:tprinter.obj
 0001:000640d0       _HB_FUN_PRINTEREXISTS      004650d0 f   xhb:tprinter.obj
 0001:00064110       _hb_GetDefaultPrinter      00465110 f   xhb:tprinter.obj
 0001:000642e0       _HB_FUN_GETDEFAULTPRINTER  004652e0 f   xhb:tprinter.obj
 0001:00064330       _hb_SetDefaultPrinter      00465330 f   xhb:tprinter.obj
 0001:00064700       _HB_FUN_SETDEFAULTPRINTER  00465700 f   xhb:tprinter.obj
 0001:00064720       _hb_GetPrinterNameByPort   00465720 f   xhb:tprinter.obj
 0001:00064860       _HB_FUN_PRINTERPORTTONAME  00465860 f   xhb:tprinter.obj
 0001:00064910       _hb_PrintFileRaw           00465910 f   xhb:tprinter.obj
 0001:00064a50       _HB_FUN_PRINTFILERAW       00465a50 f   xhb:tprinter.obj
 0001:00064af0       _HB_FUN_GETPRINTERS        00465af0 f   xhb:tprinter.obj
 0001:00065450       _hb_fsCreateTemp           00466450 f   xhb:fstemp.obj
 0001:000654b0       _HB_FUN_HB_FTEMPCREATE     004664b0 f   xhb:fstemp.obj
 0001:00065540       _hb_fsCreateTempEx         00466540 f   xhb:fstemp.obj
 0001:00065570       _HB_FUN_HB_FTEMPCREATEEX   00466570 f   xhb:fstemp.obj
 0001:00065610       _hb_conSetColor            00466610 f   xhb:setcolor.obj
 0001:00065640       _HB_FUN_SETCOLOR           00466640 f   xhb:setcolor.obj
 0001:00065660       _HB_FUN_COLORSELECT        00466660 f   xhb:setcolor.obj
 0001:00065690       _HB_FUN_SETBLINK           00466690 f   xhb:setcolor.obj
 0001:000656d0       _HB_FUN_HB_COLORTON        004666d0 f   xhb:setcolor.obj
 0001:00065710       _HB_FUN_HB_NTOCOLOR        00466710 f   xhb:setcolor.obj
 0001:00065760       _hb_conSetCursor           00466760 f   xhb:setcurs.obj
 0001:00065790       _HB_FUN_SETCURSOR          00466790 f   xhb:setcurs.obj
 0001:000657e0       _HB_FUN_ABS                004667e0 f   xhb:abs.obj
 0001:00065980       _HB_FUN_BREAK              00466980 f   xhb:break.obj
 0001:000659a0       _hb_dateCMonth             004669a0 f   xhb:datec.obj
 0001:000659e0       _hb_dateCDOW               004669e0 f   xhb:datec.obj
 0001:00065a20       _HB_FUN_CMONTH             00466a20 f   xhb:datec.obj
 0001:00065a90       _HB_FUN_CDOW               00466a90 f   xhb:datec.obj
 0001:00065b30       _HB_FUN_SETPOS             00466b30 f   xhb:setpos.obj
 0001:00065b80       _HB_FUN_ROW                00466b80 f   xhb:setpos.obj
 0001:00065bb0       _HB_FUN_COL                00466bb0 f   xhb:setpos.obj
 0001:00065be0       _hb_mathResetError         00466be0 f   xhb:math.obj
 0001:00065c40       _hb_mathGetLastError       00466c40 f   xhb:math.obj
 0001:00065cc0       _hb_mathIsMathErr          00466cc0 f   xhb:math.obj
 0001:00065cd0       _hb_mathSetErrMode         00466cd0 f   xhb:math.obj
 0001:00065cf0       _hb_mathGetErrMode         00466cf0 f   xhb:math.obj
 0001:00065d00       _HB_FUN_MATHERRMODE        00466d00 f   xhb:math.obj
 0001:00065d50       _hb_matherr                00466d50 f   xhb:math.obj
 0001:00065f40       _hb_mathSetHandler         00466f40 f   xhb:math.obj
 0001:00065f60       _hb_mathGetHandler         00466f60 f   xhb:math.obj
 0001:00066230       _HB_FUN_MATHERRORBLOCK     00467230 f   xhb:math.obj
 0001:000662e0       _HB_FUN_EXP                004672e0 f   xhb:math.obj
 0001:000663e0       _HB_FUN_LOG                004673e0 f   xhb:math.obj
 0001:00066530       _HB_FUN_SQRT               00467530 f   xhb:math.obj
 0001:00066630       _HB_FUN_INKEY              00467630 f   xhb:inkey.obj
 0001:000667a0       _HB_FUN_SETINKEYBEFOREBLOCK 004677a0 f   xhb:inkey.obj
 0001:00066800       _HB_FUN_SETINKEYAFTERBLOCK 00467800 f   xhb:inkey.obj
 0001:00066860       _HB_FUN___KEYBOARD         00467860 f   xhb:inkey.obj
 0001:000669a0       _HB_FUN_HB_KEYPUT          004679a0 f   xhb:inkey.obj
 0001:00066a80       _HB_FUN_NEXTKEY            00467a80 f   xhb:inkey.obj
 0001:00066ac0       _HB_FUN_LASTKEY            00467ac0 f   xhb:inkey.obj
 0001:00066b00       _HB_FUN_HB_SETLASTKEY      00467b00 f   xhb:inkey.obj
 0001:00066b30       _HB_FUN_MAX                00467b30 f   xhb:minmax.obj
 0001:00066e70       _HB_FUN_MIN                00467e70 f   xhb:minmax.obj
 0001:000671b0       _hb_dateTimeStamp          004681b0 f   xhb:seconds.obj
 0001:00067210       _hb_dateMilliSeconds       00468210 f   xhb:seconds.obj
 0001:00067290       _hb_dateSeconds            00468290 f   xhb:seconds.obj
 0001:000672e0       _HB_FUN_SECONDS            004682e0 f   xhb:seconds.obj
 0001:00067300       _HB_FUN_SECONDSCPU         00468300 f   xhb:seconds.obj
 0001:00067330       _HB_FUN_HB_CLOCKS2SECS     00468330 f   xhb:seconds.obj
 0001:00067360       _hb_secondsCPU             00468360 f   xhb:seconds.obj
 0001:00067480       _HB_FUN_SETPOSBS           00468480 f   xhb:setposbs.obj
 0001:000674b0       _HB_FUN_TRANSFORM          004684b0 f   xhb:transfrm.obj
 0001:00069580       _HB_FUN_TYPE               0046a580 f   xhb:type.obj
 0001:00069600       _HB_FUN_WORD               0046a600 f   xhb:word.obj
 0001:00069670       _hb_compparse              0046a670 f   xhb:macroy.obj
 0001:0006be30       _hb_macroYYParse           0046ce30 f   xhb:macroy.obj
 0001:0006be70       _hb_comperror              0046ce70 f   xhb:macroy.obj
 0001:0006be80       _hb_compReservedName       0046ce80 f   xhb:reserved.obj
 0001:0006bf40       _HB_FUN_ERRORSYS           0046cf40 f   xhb:errorsys.obj
 0001:0006c020       _PRGUnhandledExceptionFilter@4 0046d020 f   xhb:errorsys.obj
 0001:0006c130       _HB_FUN_SETERRORMODE       0046d130 f   xhb:errorsys.obj
 0001:0006c150       _HB_FUN_SETUNHANDLEDEXCEPTIONFILTER 0046d150 f   xhb:errorsys.obj
 0001:0006c180       _HB_FUN___XHELP            0046d180 f   xhb:xhelp.obj
 0001:0006c1f0       _HB_FUN___QUIT             0046d1f0 f   xhb:initexit.obj
 0001:0006c270       _HB_FUN_TRACELOG           0046d270 f   xhb:traceprg.obj
 0001:0006c470       _HB_FUN_DAYS               0046d470 f   xhb:samples.obj
 0001:0006c490       _HB_FUN_ELAPTIME           0046d490 f   xhb:samples.obj
 0001:0006c4f0       _HB_FUN_TSSECS             0046d4f0 f   xhb:samples.obj
 0001:0006c510       _HB_FUN_TSTRING            0046d510 f   xhb:samples.obj
 0001:0006c540       _HB_FUN_PADL               0046d540 f   xhb:padl.obj
 0001:0006c690       _HB_FUN_TIPENCODERQP       0046d690 f   xhb:encqp.obj
 0001:0006c6f0       _HB_FUN_TIPENCODERQP_ENCODE 0046d6f0 f   xhb:encqp.obj
 0001:0006c8c0       _HB_FUN_TIPENCODERQP_DECODE 0046d8c0 f   xhb:encqp.obj
 0001:0006ddc0       __pcre_find_bracket        0046edc0 f   xhb:pcre_compile.obj
 0001:00074f70       _pcre_compile              00475f70 f   xhb:pcre_compile.obj
 0001:00074fa0       _pcre_compile2             00475fa0 f   xhb:pcre_compile.obj
 0001:00075b30       _pcre_fullinfo             00476b30 f   xhb:pcre_fullinfo.obj
 0001:000821a0       _pcre_exec                 004831a0 f   xhb:pcre_exec.obj
 0001:00083530       _hb_gt_setClipboard        00484530 f   xhb:gtclip.obj
 0001:000835a0       _hb_gt_getClipboard        004845a0 f   xhb:gtclip.obj
 0001:00083610       _hb_gt_w32_setClipboard    00484610 f   xhb:gtclip.obj
 0001:00083720       _hb_gt_w32_getClipboard    00484720 f   xhb:gtclip.obj
 0001:000838b0       _HB_FUN_HB_GTSYS           004848b0 f   xhb:gtsys.obj
 0001:00083ec0       _hb_compFlexNew            00484ec0 f   xhb:macroslx.obj
 0001:00083ef0       _hb_compFlexDelete         00484ef0 f   xhb:macroslx.obj
 0001:00083f70       _hb_complex                00484f70 f   xhb:macroslx.obj
 0001:000841b0       _SimpLex_GetNextToken      004851b0 f   xhb:macroslx.obj
 0001:000850f0       _SimpLex_CheckToken        004860f0 f   xhb:macroslx.obj
 0001:000855a0       _SimpLex_CheckWords        004865a0 f   xhb:macroslx.obj
 0001:00085c00       _yy_create_buffer          00486c00 f   xhb:macroslx.obj
 0001:00085c20       _yy_switch_to_buffer       00486c20 f   xhb:macroslx.obj
 0001:00085c40       _yy_delete_buffer          00486c40 f   xhb:macroslx.obj
 0001:00085c60       _yy_bytes_buffer           00486c60 f   xhb:macroslx.obj
 0001:00085f50       _hb_compExprNew            00486f50 f   xhb:expropt1.obj
 0001:00085f80       _hb_compExprClear          00486f80 f   xhb:expropt1.obj
 0001:00085fa0       _hb_compExprClone          00486fa0 f   xhb:expropt1.obj
 0001:00085fc0       _hb_compExprDescription    00486fc0 f   xhb:expropt1.obj
 0001:00085fe0       _hb_compExprType           00486fe0 f   xhb:expropt1.obj
 0001:00085ff0       _hb_compExprNewExtBlock    00486ff0 f   xhb:expropt1.obj
 0001:00086010       _hb_compExprNewEmpty       00487010 f   xhb:expropt1.obj
 0001:00086020       _hb_compExprNewDouble      00487020 f   xhb:expropt1.obj
 0001:00086050       _hb_compExprNewLong        00487050 f   xhb:expropt1.obj
 0001:00086080       _hb_compExprNewDate        00487080 f   xhb:expropt1.obj
 0001:000860d0       _hb_compExprNewDateTime    004870d0 f   xhb:expropt1.obj
 0001:00086310       _hb_compExprNewDateTimeVal 00487310 f   xhb:expropt1.obj
 0001:00086340       _hb_compExprNewString      00487340 f   xhb:expropt1.obj
 0001:00086370       _hb_compExprNewCodeBlock   00487370 f   xhb:expropt1.obj
 0001:000863a0       _hb_compExprNewLogical     004873a0 f   xhb:expropt1.obj
 0001:000863c0       _hb_compExprNewNil         004873c0 f   xhb:expropt1.obj
 0001:000863e0       _hb_compExprNewSelf        004873e0 f   xhb:expropt1.obj
 0001:00086400       _hb_compExprNewVarRef      00487400 f   xhb:expropt1.obj
 0001:00086430       _hb_compExprNewMemVarRef   00487430 f   xhb:expropt1.obj
 0001:00086460       _hb_compExprNewFunRef      00487460 f   xhb:expropt1.obj
 0001:00086490       _hb_compExprNewArray       00487490 f   xhb:expropt1.obj
 0001:00086500       _hb_compExprNewMacro       00487500 f   xhb:expropt1.obj
 0001:00086560       _hb_compExprNewAliasVar    00487560 f   xhb:expropt1.obj
 0001:000865b0       _hb_compExprNewAliasExpr   004875b0 f   xhb:expropt1.obj
 0001:000865f0       _hb_compExprNewSend        004875f0 f   xhb:expropt1.obj
 0001:00086630       _hb_compExprNewSendExp     00487630 f   xhb:expropt1.obj
 0001:000866a0       _hb_compExprNewWithSend    004876a0 f   xhb:expropt1.obj
 0001:000866d0       _hb_compExprNewWithSendExp 004876d0 f   xhb:expropt1.obj
 0001:00086730       _hb_compExprNewMethodCall  00487730 f   xhb:expropt1.obj
 0001:00086750       _hb_compExprNewWithMethodCall 00487750 f   xhb:expropt1.obj
 0001:00086770       _hb_compExprNewList        00487770 f   xhb:expropt1.obj
 0001:00086790       _hb_compExprNewArgList     00487790 f   xhb:expropt1.obj
 0001:000867b0       _hb_compExprAddListExpr    004877b0 f   xhb:expropt1.obj
 0001:000867f0       _hb_compExprNewVar         004877f0 f   xhb:expropt1.obj
 0001:00086810       _hb_compExprNewRTVar       00487810 f   xhb:expropt1.obj
 0001:00086840       _hb_compExprNewAlias       00487840 f   xhb:expropt1.obj
 0001:00086860       _hb_compExprNewEqual       00487860 f   xhb:expropt1.obj
 0001:00086880       _hb_compExprNewPlus        00487880 f   xhb:expropt1.obj
 0001:000868a0       _hb_compExprNewMinus       004878a0 f   xhb:expropt1.obj
 0001:000868c0       _hb_compExprNewMult        004878c0 f   xhb:expropt1.obj
 0001:000868e0       _hb_compExprNewDiv         004878e0 f   xhb:expropt1.obj
 0001:00086900       _hb_compExprNewMod         00487900 f   xhb:expropt1.obj
 0001:00086920       _hb_compExprNewPower       00487920 f   xhb:expropt1.obj
 0001:00086940       _hb_compExprNewBitAnd      00487940 f   xhb:expropt1.obj
 0001:00086960       _hb_compExprNewBitOr       00487960 f   xhb:expropt1.obj
 0001:00086980       _hb_compExprNewBitXOr      00487980 f   xhb:expropt1.obj
 0001:000869a0       _hb_compExprNewBitShiftR   004879a0 f   xhb:expropt1.obj
 0001:000869c0       _hb_compExprNewBitShiftL   004879c0 f   xhb:expropt1.obj
 0001:000869e0       _hb_compExprNewPostInc     004879e0 f   xhb:expropt1.obj
 0001:00086a00       _hb_compExprNewPostDec     00487a00 f   xhb:expropt1.obj
 0001:00086a20       _hb_compExprNewPreInc      00487a20 f   xhb:expropt1.obj
 0001:00086a40       _hb_compExprNewPreDec      00487a40 f   xhb:expropt1.obj
 0001:00086a60       _hb_compExprNewPlusEq      00487a60 f   xhb:expropt1.obj
 0001:00086a80       _hb_compExprNewMinusEq     00487a80 f   xhb:expropt1.obj
 0001:00086aa0       _hb_compExprNewMultEq      00487aa0 f   xhb:expropt1.obj
 0001:00086ac0       _hb_compExprNewDivEq       00487ac0 f   xhb:expropt1.obj
 0001:00086ae0       _hb_compExprNewModEq       00487ae0 f   xhb:expropt1.obj
 0001:00086b00       _hb_compExprNewExpEq       00487b00 f   xhb:expropt1.obj
 0001:00086b20       _hb_compExprNewAnd         00487b20 f   xhb:expropt1.obj
 0001:00086b40       _hb_compExprNewOr          00487b40 f   xhb:expropt1.obj
 0001:00086b60       _hb_compExprNewMatch       00487b60 f   xhb:expropt1.obj
 0001:00086b80       _hb_compExprNewLike        00487b80 f   xhb:expropt1.obj
 0001:00086ba0       _hb_compExprNewNot         00487ba0 f   xhb:expropt1.obj
 0001:00086bf0       _hb_compExprNewEQ          00487bf0 f   xhb:expropt1.obj
 0001:00086c10       _hb_compExprNewLT          00487c10 f   xhb:expropt1.obj
 0001:00086c30       _hb_compExprNewGT          00487c30 f   xhb:expropt1.obj
 0001:00086c50       _hb_compExprNewLE          00487c50 f   xhb:expropt1.obj
 0001:00086c70       _hb_compExprNewGE          00487c70 f   xhb:expropt1.obj
 0001:00086c90       _hb_compExprNewNE          00487c90 f   xhb:expropt1.obj
 0001:00086cb0       _hb_compExprNewIN          00487cb0 f   xhb:expropt1.obj
 0001:00086cd0       _hb_compExprNewNegate      00487cd0 f   xhb:expropt1.obj
 0001:00086dd0       _hb_compExprAssign         00487dd0 f   xhb:expropt1.obj
 0001:00086df0       _hb_compExprListLen        00487df0 f   xhb:expropt1.obj
 0001:00086e20       _hb_compExprDelete         00487e20 f   xhb:macroa.obj
 0001:00086e60       _hb_compExprFree           00487e60 f   xhb:macroa.obj
 0001:00086ea0       _hb_compExprErrorType      00487ea0 f   xhb:macroa.obj
 0001:00086ef0       _hb_compExprCBVarAdd       00487ef0 f   xhb:macroa.obj
 0001:00086f80       _hb_compExprNewIIF         00487f80 f   xhb:macroa.obj
 0001:00086f90       _hb_compExprNewFunCall     00487f90 f   xhb:macroa.obj
 0001:00087000       _hb_compExprNewFunName     00488000 f   xhb:macroa.obj
 0001:00087020       _hb_compExprNewNamespaceFunRef 00488020 f   xhb:macroa.obj
 0001:00087050       _hb_compExprNewNamespaceFunName 00488050 f   xhb:macroa.obj
 0001:00087070       _hb_compExprNewArrayAt     00488070 f   xhb:macroa.obj
 0001:000870a0       _hb_compExprSetOperand     004880a0 f   xhb:macroa.obj
 0001:00087180       _hb_compExprGenStatement   00488180 f   xhb:macroa.obj
 0001:000871c0       _hb_compExprGenPush        004881c0 f   xhb:macroa.obj
 0001:00087200       _hb_compExprGenPop         00488200 f   xhb:macroa.obj
 0001:00087220       _hb_compExprCBVarDel       00488220 f   xhb:macroa.obj
 0001:00087250       _HB_FUN_DISPBEGIN          00488250 f   xhb:gt.obj
 0001:00087260       _HB_FUN_DISPEND            00488260 f   xhb:gt.obj
 0001:00087270       _HB_FUN_DISPCOUNT          00488270 f   xhb:gt.obj
 0001:00087290       _hb_MaxRow                 00488290 f   xhb:maxrow.obj
 0001:00087300       _hb_MaxCol                 00488300 f   xhb:maxrow.obj
 0001:00087370       _HB_FUN_MAXROW             00488370 f   xhb:maxrow.obj
 0001:000873b0       _HB_FUN_MAXCOL             004883b0 f   xhb:maxrow.obj
 0001:000874c0       _HB_FUN_SAVESCREEN         004884c0 f   xhb:saverest.obj
 0001:00087560       _HB_FUN_RESTSCREEN         00488560 f   xhb:saverest.obj
 0001:000875e0       _HB_FUN_PADC               004885e0 f   xhb:padc.obj
 0001:00087720       _hb_netname                00488720 f   xhb:net.obj
 0001:00087760       _HB_FUN_NETNAME            00488760 f   xhb:net.obj
 0001:000877a0       _HB_FUN_DIRCHANGE          004887a0 f   xhb:dirdrive.obj
 0001:00087800       _HB_FUN_MAKEDIR            00488800 f   xhb:dirdrive.obj
 0001:00087860       _HB_FUN_DIRREMOVE          00488860 f   xhb:dirdrive.obj
 0001:000878c0       _HB_FUN_ISDISK             004888c0 f   xhb:dirdrive.obj
 0001:00087970       _HB_FUN_DISKCHANGE         00488970 f   xhb:dirdrive.obj
 0001:00087a20       _HB_FUN_DISKNAME           00488a20 f   xhb:dirdrive.obj
 0001:00087a60       _HB_FUN_DISKSPACE          00488a60 f   xhb:diskspac.obj
 0001:00087cc0       _HB_FUN_OS                 00488cc0 f   xhb:version.obj
 0001:00087ce0       _HB_FUN_HB_COMPILER        00488ce0 f   xhb:version.obj
 0001:00087d00       _HB_FUN_VERSION            00488d00 f   xhb:version.obj
 0001:00087d20       _HB_FUN_HB_PCODEVER        00488d20 f   xhb:version.obj
 0001:00087d40       _HB_FUN_HB_BUILDDATE       00488d40 f   xhb:version.obj
 0001:00087d60       _HB_FUN_HB_BUILDINFO       00488d60 f   xhb:version.obj
 0001:000880b0       _HB_FUN_PADR               004890b0 f   xhb:padr.obj
 0001:000881c0       _HB_FUN_HB_FNAMESPLIT      004891c0 f   xhb:fnsplit.obj
 0001:00088230       _HB_FUN_HB_FNAMEMERGE      00489230 f   xhb:fnsplit.obj
 0001:000882a0       __pcre_is_newline          004892a0 f   xhb:pcre_newline.obj
 0001:00088500       __pcre_was_newline         00489500 f   xhb:pcre_newline.obj
 0001:00088770       __pcre_ord2utf             00489770 f   xhb:pcre_ord2utf8.obj
 0001:00088800       __pcre_valid_utf           00489800 f   xhb:pcre_valid_utf8.obj
 0001:00088c10       __pcre_xclass              00489c10 f   xhb:pcre_xclass.obj
 0001:00089180       _hb_mbtowccpy              0048a180 f   xhb:hbwince.obj
 0001:000891a0       _hb_mbtowcset              0048a1a0 f   xhb:hbwince.obj
 0001:000891c0       _hb_mbtowc                 0048a1c0 f   xhb:hbwince.obj
 0001:00089210       _hb_wctomb                 0048a210 f   xhb:hbwince.obj
 0001:00089260       _hb_mbntowc                0048a260 f   xhb:hbwince.obj
 0001:000892b0       _hb_wcntomb                0048a2b0 f   xhb:hbwince.obj
 0001:00089300       _hb_wctombget              0048a300 f   xhb:hbwince.obj
 0001:00089320       _hb_compExprDelOperator    0048a320 f   xhb:macroc.obj
 0001:00089360       _hb_compExprPushOperEq     0048a360 f   xhb:macroc.obj
 0001:00089580       _hb_compExprUseOperEq      0048a580 f   xhb:macroc.obj
 0001:00089770       _hb_compExprPushPreOp      0048a770 f   xhb:macroc.obj
 0001:000898e0       _hb_compExprPushPostOp     0048a8e0 f   xhb:macroc.obj
 0001:00089990       _hb_compExprUsePreOp       0048a990 f   xhb:macroc.obj
 0001:00089a20       _hb_compExprUseAliasMacro  0048aa20 f   xhb:macroc.obj
 0001:00089b70       _hb_compExprReduceList     0048ab70 f   xhb:macroc.obj
 0001:00089bd0       _hb_compExprCheckMacroVar  0048abd0 f   xhb:macroc.obj
 0001:00089c40       _hb_compExprReducePlusStrings 0048ac40 f   xhb:macroc.obj
 0001:00090480       _hb_ParseLine              00491480 f   xhb:fparse.obj
 0001:00090870       _file_read                 00491870 f   xhb:fparse.obj
 0001:00090910       _HB_FUN_FPARSE             00491910 f   xhb:fparse.obj
 0001:00090ac0       _HB_FUN_FPARSEEX           00491ac0 f   xhb:fparse.obj
 0001:00090c20       _HB_FUN_FWORDCOUNT         00491c20 f   xhb:fparse.obj
 0001:00090d20       _HB_FUN_FLINECOUNT         00491d20 f   xhb:fparse.obj
 0001:00090dc0       _HB_FUN_FCHARCOUNT         00491dc0 f   xhb:fparse.obj
 0001:00090e70       _HB_FUN_FPARSELINE         00491e70 f   xhb:fparse.obj
 0001:00090f20       _hb_compExprReduceMod      00491f20 f   xhb:expropt2.obj
 0001:00091000       _hb_compExprReduceDiv      00492000 f   xhb:expropt2.obj
 0001:00091200       _hb_compExprReduceMult     00492200 f   xhb:expropt2.obj
 0001:000913b0       _hb_compExprReduceMinus    004923b0 f   xhb:expropt2.obj
 0001:00091560       _hb_compExprReducePlus     00492560 f   xhb:expropt2.obj
 0001:00091780       _hb_compExprReduceIN       00492780 f   xhb:expropt2.obj
 0001:00091830       _hb_compExprReduceNE       00492830 f   xhb:expropt2.obj
 0001:00091a80       _hb_compExprReduceGE       00492a80 f   xhb:expropt2.obj
 0001:00091c40       _hb_compExprReduceLE       00492c40 f   xhb:expropt2.obj
 0001:00091e00       _hb_compExprReduceGT       00492e00 f   xhb:expropt2.obj
 0001:00091fc0       _hb_compExprReduceLT       00492fc0 f   xhb:expropt2.obj
 0001:00092180       _hb_compExprReduceEQ       00493180 f   xhb:expropt2.obj
 0001:00092400       _hb_compExprReduceAnd      00493400 f   xhb:expropt2.obj
 0001:00092570       _hb_compExprReduceOr       00493570 f   xhb:expropt2.obj
 0001:000926e0       _hb_compExprReduceBitOp    004936e0 f   xhb:expropt2.obj
 0001:000928c0       _hb_compExprReduceIIF      004938c0 f   xhb:expropt2.obj
 0001:000929c0       _hb_compExprListStrip      004939c0 f   xhb:expropt2.obj
 0001:00092a60       _hb_compExprListStripSingle 00493a60 f   xhb:expropt2.obj
 0001:00092ac0       _hb_compExprReduceUPPER    00493ac0 f   xhb:expropt2.obj
 0001:00095a4c       _hb_rddGetNode             00496a4c f   DBF:workarea.obj
 0001:00095a88       _hb_rddList                00496a88 f   DBF:workarea.obj
 0001:00095b8f       _hb_rddFindNode            00496b8f f   DBF:workarea.obj
 0001:00095c22       _hb_rddShutDown            00496c22 f   DBF:workarea.obj
 0001:00095cdd       _hb_rddRegister            00496cdd f   DBF:workarea.obj
 0001:00095ede       _hb_rddInherit             00496ede f   DBF:workarea.obj
 0001:00096010       _HB_FUN___RDDPREALLOCATE   00497010 f   DBF:workarea.obj
 0001:00096090       __hb_rddWorkAreaForceLink  00497090 f   DBF:workarea.obj
 0001:000960a0       _hb_rddVerifyAliasName     004970a0 f   DBF:wafunc.obj
 0001:000961bf       _hb_rddNewAreaNode         004971bf f   DBF:wafunc.obj
 0001:0009630d       _hb_rddGetTempAlias        0049730d f   DBF:wafunc.obj
 0001:00096376       _hb_rddGetAliasName        00497376 f   DBF:wafunc.obj
 0001:00096392       _hb_rddAllocWorkAreaAlias  00497392 f   DBF:wafunc.obj
 0001:00096478       _hb_rddFieldIndex          00497478 f   DBF:wafunc.obj
 0001:0009653c       _hb_rddFieldExpIndex       0049753c f   DBF:wafunc.obj
 0001:000967f7       _hb_rddGetAliasNumber      004977f7 f   DBF:wafunc.obj
 0001:00096961       _hb_rddSelectWorkAreaSymbol 00497961 f   DBF:wafunc.obj
 0001:00096b2e       _hb_rddSelectWorkAreaAlias 00497b2e f   DBF:wafunc.obj
 0001:00096c09       _hb_rddFieldGet            00497c09 f   DBF:wafunc.obj
 0001:00096c97       _hb_rddFieldPut            00497c97 f   DBF:wafunc.obj
 0001:00096d25       _hb_rddGetFieldValue       00497d25 f   DBF:wafunc.obj
 0001:00096de7       _hb_rddPutFieldValue       00497de7 f   DBF:wafunc.obj
 0001:00096ea9       _hb_rddOpenTable           00497ea9 f   DBF:wafunc.obj
 0001:00097083       _hb_rddCreateTable         00498083 f   DBF:wafunc.obj
 0001:00097258       _hb_rddCreateTableTemp     00498258 f   DBF:wafunc.obj
 0001:0009746d       _hb_tblStructure           0049846d f   DBF:wafunc.obj
 0001:0009759b       _hb_dbTransStruct          0049859b f   DBF:wafunc.obj
 0001:00097d0e       _hb_rddTransRecords        00498d0e f   DBF:wafunc.obj
 0001:00098129       _hb_rddCloseAllParentRelations 00499129 f   DBF:wafunc.obj
 0001:00098541       _hb_rddSelectFirstAvailable 00499541 f   DBF:wacore.obj
 0001:0009860d       _hb_rddInsertAreaNode      0049960d f   DBF:wacore.obj
 0001:00098704       _hb_rddReleaseCurrentArea  00499704 f   DBF:wacore.obj
 0001:00098777       _hb_rddWaInit              00499777 f   DBF:wacore.obj
 0001:00098808       _hb_rddChangeSetWorkareasShared 00499808 f   DBF:wacore.obj
 0001:0009881c       _hb_rddWaShutDown          0049981c f   DBF:wacore.obj
 0001:0009882d       _hb_rddCloseAll            0049982d f   DBF:wacore.obj
 0001:00098a17       _hb_rddFlushAll            00499a17 f   DBF:wacore.obj
 0001:00098a99       _hb_rddUnLockAll           00499a99 f   DBF:wacore.obj
 0001:00098b20       _hb_rddIterateWorkAreas    00499b20 f   DBF:wacore.obj
 0001:00098b93       _hb_rddGetNetErr           00499b93 f   DBF:wacore.obj
 0001:00098b9f       _hb_rddSetNetErr           00499b9f f   DBF:wacore.obj
 0001:00098bae       _hb_rddDefaultDrv          00499bae f   DBF:wacore.obj
 0001:00098cb6       _hb_rddGetWorkAreaPointer  00499cb6 f   DBF:wacore.obj
 0001:00098d17       _hb_rddGetCurrentWorkAreaPointer 00499d17 f   DBF:wacore.obj
 0001:00098d24       _hb_rddGetCurrentWorkAreaNumber 00499d24 f   DBF:wacore.obj
 0001:00098d32       _hb_rddSelectWorkAreaNumber 00499d32 f   DBF:wacore.obj
 0001:00098e30       _HB_FUN_AFIELDS            00499e30 f   DBF:dbcmd.obj
 0001:0009922d       _HB_FUN_ALIAS              0049a22d f   DBF:dbcmd.obj
 0001:00099294       _HB_FUN_DBEVAL             0049a294 f   DBF:dbcmd.obj
 0001:00099548       _HB_FUN_DBF                0049a548 f   DBF:dbcmd.obj
 0001:0009959b       _HB_FUN_BOF                0049a59b f   DBF:dbcmd.obj
 0001:000995db       _HB_FUN_DBAPPEND           0049a5db f   DBF:dbcmd.obj
 0001:00099692       _HB_FUN_DBCLEARFILTER      0049a692 f   DBF:dbcmd.obj
 0001:000996d7       _HB_FUN_DBCLOSEALL         0049a6d7 f   DBF:dbcmd.obj
 0001:000996e1       _HB_FUN_DBCLOSEAREA        0049a6e1 f   DBF:dbcmd.obj
 0001:000996eb       _HB_FUN_DBCOMMIT           0049a6eb f   DBF:dbcmd.obj
 0001:0009972d       _HB_FUN_DBCOMMITALL        0049a72d f   DBF:dbcmd.obj
 0001:00099737       _HB_FUN_DBCREATE           0049a737 f   DBF:dbcmd.obj
 0001:00099999       _HB_FUN_HB_DBCREATETEMP    0049a999 f   DBF:dbcmd.obj
 0001:00099b43       _HB_FUN___DBOPENSDF        0049ab43 f   DBF:dbcmd.obj
 0001:00099de8       _HB_FUN_DBDELETE           0049ade8 f   DBF:dbcmd.obj
 0001:00099e2a       _HB_FUN_DBFILTER           0049ae2a f   DBF:dbcmd.obj
 0001:00099e80       _HB_FUN_DBGOBOTTOM         0049ae80 f   DBF:dbcmd.obj
 0001:00099ec2       _HB_FUN_DBGOTO             0049aec2 f   DBF:dbcmd.obj
 0001:00099f3f       _HB_FUN_DBGOTOP            0049af3f f   DBF:dbcmd.obj
 0001:00099f81       _HB_FUN___DBLOCATE         0049af81 f   DBF:dbcmd.obj
 0001:0009a069       _HB_FUN___DBSETLOCATE      0049b069 f   DBF:dbcmd.obj
 0001:0009a0ce       _HB_FUN___DBCONTINUE       0049b0ce f   DBF:dbcmd.obj
 0001:0009a115       _HB_FUN___DBPACK           0049b115 f   DBF:dbcmd.obj
 0001:0009a247       _HB_FUN_DBRECALL           0049b247 f   DBF:dbcmd.obj
 0001:0009a289       _HB_FUN_DBRLOCK            0049b289 f   DBF:dbcmd.obj
 0001:0009a34e       _HB_FUN_DBRLOCKLIST        0049b34e f   DBF:dbcmd.obj
 0001:0009a3b2       _HB_FUN_DBRUNLOCK          0049b3b2 f   DBF:dbcmd.obj
 0001:0009a408       _HB_FUN_DBSEEK             0049b408 f   DBF:dbcmd.obj
 0001:0009a56b       _HB_FUN_DBSELECTAREA       0049b56b f   DBF:dbcmd.obj
 0001:0009a5ee       _HB_FUN___DBSETFOUND       0049b5ee f   DBF:dbcmd.obj
 0001:0009a63c       _HB_FUN_DBSETFILTER        0049b63c f   DBF:dbcmd.obj
 0001:0009a722       _HB_FUN_DBSKIP             0049b722 f   DBF:dbcmd.obj
 0001:0009a796       _HB_FUN_DBSTRUCT           0049b796 f   DBF:dbcmd.obj
 0001:0009a7df       _HB_FUN_DBTABLEEXT         0049b7df f   DBF:dbcmd.obj
 0001:0009a89c       _HB_FUN_DBUNLOCK           0049b89c f   DBF:dbcmd.obj
 0001:0009a8e3       _HB_FUN_DBUNLOCKALL        0049b8e3 f   DBF:dbcmd.obj
 0001:0009a8ed       _HB_FUN_DBUSEAREA          0049b8ed f   DBF:dbcmd.obj
 0001:0009aa11       _HB_FUN___DBZAP            0049ba11 f   DBF:dbcmd.obj
 0001:0009aa56       _HB_FUN_ISMARKED           0049ba56 f   DBF:dbcmd.obj
 0001:0009aabf       _HB_FUN_LKSYS              0049babf f   DBF:dbcmd.obj
 0001:0009ab48       _HB_FUN_DELETED            0049bb48 f   DBF:dbcmd.obj
 0001:0009ab89       _HB_FUN_EOF                0049bb89 f   DBF:dbcmd.obj
 0001:0009abca       _HB_FUN_FCOUNT             0049bbca f   DBF:dbcmd.obj
 0001:0009ac0b       _HB_FUN_FIELDGET           0049bc0b f   DBF:dbcmd.obj
 0001:0009ac72       _HB_FUN_FIELDNAME          0049bc72 f   DBF:dbcmd.obj
 0001:0009ad21       _HB_FUN_FIELDPOS           0049bd21 f   DBF:dbcmd.obj
 0001:0009ad84       _HB_FUN_FIELDPUT           0049bd84 f   DBF:dbcmd.obj
 0001:0009ae1b       _HB_FUN_FLOCK              0049be1b f   DBF:dbcmd.obj
 0001:0009ae84       _HB_FUN_FOUND              0049be84 f   DBF:dbcmd.obj
 0001:0009aec5       _HB_FUN_HEADER             0049bec5 f   DBF:dbcmd.obj
 0001:0009af20       _HB_FUN_INDEXORD           0049bf20 f   DBF:dbcmd.obj
 0001:0009afa2       _HB_FUN_LASTREC            0049bfa2 f   DBF:dbcmd.obj
 0001:0009afe6       _HB_FUN_LOCK               0049bfe6 f   DBF:dbcmd.obj
 0001:0009b04f       _HB_FUN_LUPDATE            0049c04f f   DBF:dbcmd.obj
 0001:0009b0aa       _HB_FUN_NETERR             0049c0aa f   DBF:dbcmd.obj
 0001:0009b0e8       _HB_FUN_ORDBAGEXT          0049c0e8 f   DBF:dbcmd.obj
 0001:0009b1b5       _HB_FUN_ORDBAGNAME         0049c1b5 f   DBF:dbcmd.obj
 0001:0009b2e8       _HB_FUN_ORDCONDSET         0049c2e8 f   DBF:dbcmd.obj
 0001:0009b77f       _HB_FUN_ORDCREATE          0049c77f f   DBF:dbcmd.obj
 0001:0009b952       _HB_FUN_ORDBAGCLEAR        0049c952 f   DBF:dbcmd.obj
 0001:0009b9fa       _HB_FUN_ORDDESTROY         0049c9fa f   DBF:dbcmd.obj
 0001:0009bab4       _HB_FUN_ORDFOR             0049cab4 f   DBF:dbcmd.obj
 0001:0009bc09       _HB_FUN_ORDKEY             0049cc09 f   DBF:dbcmd.obj
 0001:0009bd4e       _HB_FUN_ORDLISTADD         0049cd4e f   DBF:dbcmd.obj
 0001:0009beab       _HB_FUN_ORDLISTCLEAR       0049ceab f   DBF:dbcmd.obj
 0001:0009bef0       _HB_FUN_ORDLISTREBUILD     0049cef0 f   DBF:dbcmd.obj
 0001:0009bf35       _HB_FUN_ORDNAME            0049cf35 f   DBF:dbcmd.obj
 0001:0009c067       _HB_FUN_ORDNUMBER          0049d067 f   DBF:dbcmd.obj
 0001:0009c1a3       _HB_FUN_ORDSETFOCUS        0049d1a3 f   DBF:dbcmd.obj
 0001:0009c256       _HB_FUN_RDDLIST            0049d256 f   DBF:dbcmd.obj
 0001:0009c27a       _HB_FUN_RDDNAME            0049d27a f   DBF:dbcmd.obj
 0001:0009c2cf       _HB_FUN_RDDREGISTER        0049d2cf f   DBF:dbcmd.obj
 0001:0009c359       _HB_FUN_RECCOUNT           0049d359 f   DBF:dbcmd.obj
 0001:0009c363       _HB_FUN_RECNO              0049d363 f   DBF:dbcmd.obj
 0001:0009c3af       _HB_FUN_RECSIZE            0049d3af f   DBF:dbcmd.obj
 0001:0009c40a       _HB_FUN_RLOCK              0049d40a f   DBF:dbcmd.obj
 0001:0009c473       _HB_FUN_SELECT             0049d473 f   DBF:dbcmd.obj
 0001:0009c4f7       _HB_FUN_USED               0049d4f7 f   DBF:dbcmd.obj
 0001:0009c52e       _HB_FUN_RDDSETDEFAULT      0049d52e f   DBF:dbcmd.obj
 0001:0009c588       _HB_FUN_DBSETDRIVER        0049d588 f   DBF:dbcmd.obj
 0001:0009c5e2       _HB_FUN_ORDSCOPE           0049d5e2 f   DBF:dbcmd.obj
 0001:0009c787       _HB_FUN_DBRELATION         0049d787 f   DBF:dbcmd.obj
 0001:0009c812       _HB_FUN_DBRSELECT          0049d812 f   DBF:dbcmd.obj
 0001:0009c864       _HB_FUN_DBCLEARRELATION    0049d864 f   DBF:dbcmd.obj
 0001:0009c891       _HB_FUN_DBSETRELATION      0049d891 f   DBF:dbcmd.obj
 0001:0009caa6       _HB_FUN___DBARRANGE        0049daa6 f   DBF:dbcmd.obj
 0001:0009cfb7       _HB_FUN___DBTRANS          0049dfb7 f   DBF:dbcmd.obj
 0001:0009d1eb       _HB_FUN___DBAPP            0049e1eb f   DBF:dbcmd.obj
 0001:0009d37d       _HB_FUN___DBCOPY           0049e37d f   DBF:dbcmd.obj
 0001:0009d5c9       _HB_FUN_HB_RDDGETTEMPALIAS 0049e5c9 f   DBF:dbcmd.obj
 0001:0009d5f7       _HB_FUN___RDDGETTEMPALIAS  0049e5f7 f   DBF:dbcmd.obj
 0001:0009d601       _HB_FUN_HB_RDDINFO         0049e601 f   DBF:dbcmd.obj
 0001:0009d6e3       _HB_FUN_HB_DBDROP          0049e6e3 f   DBF:dbcmd.obj
 0001:0009d7c5       _HB_FUN_HB_DBEXISTS        0049e7c5 f   DBF:dbcmd.obj
 0001:0009d8a7       _HB_FUN_HB_DBRENAME        0049e8a7 f   DBF:dbcmd.obj
 0001:0009d9d6       _HB_FUN_HB_FIELDLEN        0049e9d6 f   DBF:dbcmd.obj
 0001:0009da65       _HB_FUN_HB_FIELDDEC        0049ea65 f   DBF:dbcmd.obj
 0001:0009daf4       _HB_FUN_HB_FIELDTYPE       0049eaf4 f   DBF:dbcmd.obj
 0001:0009db7e       _HB_FUN_HB_FIELDFLAG       0049eb7e f   DBF:dbcmd.obj
 0001:0009dc0d       _HB_FUN_HB_FIELDSTEP       0049ec0d f   DBF:dbcmd.obj
 0001:0009dce0       _HB_FUN_DBCREATEINDEX      0049ece0 f   DBF:rddord.obj
 0001:0009dd00       _HB_FUN_DBSETINDEX         0049ed00 f   DBF:rddord.obj
 0001:0009dd20       _HB_FUN_DBCLEARINDEX       0049ed20 f   DBF:rddord.obj
 0001:0009dd40       _HB_FUN_DBREINDEX          0049ed40 f   DBF:rddord.obj
 0001:0009dd60       _HB_FUN_DBSETORDER         0049ed60 f   DBF:rddord.obj
 0001:0009dd80       _HB_FUN_INDEXEXT           0049ed80 f   DBF:rddord.obj
 0001:0009dda0       _HB_FUN_INDEXKEY           0049eda0 f   DBF:rddord.obj
 0001:0009ddc0       _HB_FUN_ORDSETRELATION     0049edc0 f   DBF:rddord.obj
 0001:0009de20       _HB_FUN_RDDSYS             0049ee20 f   DBF:rddsys.obj
 0001:0009f7dc       _hb_dbfGetEGcode           004a07dc f   DBF:dbf1.obj
 0001:0009f8cb       _hb_dbfGetMemoBlock        004a08cb f   DBF:dbf1.obj
 0001:0009f98e       _hb_dbfPutMemoBlock        004a098e f   DBF:dbf1.obj
 0001:0009fa7b       _hb_dbfGetMemoData         004a0a7b f   DBF:dbf1.obj
 0001:0009fcdb       _hb_dbfSetMemoData         004a0cdb f   DBF:dbf1.obj
 0001:0009fe9b       _hb_dbfLockIdxGetData      004a0e9b f   DBF:dbf1.obj
 0001:0009ffc4       _hb_dbfLockIdxFile         004a0fc4 f   DBF:dbf1.obj
 0001:000a6ec2       _hb_dbfTranslateRec        004a7ec2 f   DBF:dbf1.obj
 0001:000a9f5f       _HB_FUN__DBF               004aaf5f f   DBF:dbf1.obj
 0001:000a9f64       _HB_FUN_DBF_GETFUNCTABLE   004aaf64 f   DBF:dbf1.obj
 0001:000b4d34       _HB_FUN_DBFDBT             004b5d34 f   DBF:dbffpt1.obj
 0001:000b4d39       _HB_FUN_DBFSMT             004b5d39 f   DBF:dbffpt1.obj
 0001:000b4d3e       _HB_FUN_DBFFPT             004b5d3e f   DBF:dbffpt1.obj
 0001:000b4d43       _HB_FUN_DBFBLOB            004b5d43 f   DBF:dbffpt1.obj
 0001:000b4dec       _HB_FUN_DBFFPT_GETFUNCTABLE 004b5dec f   DBF:dbffpt1.obj
 0001:000b4dfe       _HB_FUN_DBFBLOB_GETFUNCTABLE 004b5dfe f   DBF:dbffpt1.obj
 0001:000b4fca       _hb_sxEnCrypt              004b5fca f   DBF:sxcrypt.obj
 0001:000b5095       _hb_sxDeCrypt              004b6095 f   DBF:sxcrypt.obj
 0001:000b5295       _HB_FUN_SX_ENCRYPT         004b6295 f   DBF:sxcrypt.obj
 0001:000b5355       _HB_FUN_SX_DECRYPT         004b6355 f   DBF:sxcrypt.obj
 0001:000b5420       _hb_sxDtoP                 004b6420 f   DBF:sxdate.obj
 0001:000b5488       _hb_sxPtoD                 004b6488 f   DBF:sxdate.obj
 0001:000b54f7       _HB_FUN_SX_DTOP            004b64f7 f   DBF:sxdate.obj
 0001:000b5523       _HB_FUN_SX_PTOD            004b6523 f   DBF:sxdate.obj
 0001:000b5570       _hb_dbQSortInit            004b6570 f   DBF:hbdbsort.obj
 0001:000b5666       _hb_dbQSortExit            004b6666 f   DBF:hbdbsort.obj
 0001:000b56e2       _hb_dbQSortAdvance         004b66e2 f   DBF:hbdbsort.obj
 0001:000b5d24       _hb_dbQSortComplete        004b6d24 f   DBF:hbdbsort.obj
 0001:000c6bc9       _HB_FUN_DBFNTX             004c7bc9 f   NTX:dbfntx1.obj
 0001:000c6bce       _HB_FUN_DBFNTX_GETFUNCTABLE 004c7bce f   NTX:dbfntx1.obj
 0001:000c6d90       _mainCRTStartup            004c7d90 f   crt:_crt0.obj
 0001:000c6e90       ___lllt                    004c7e90     crt:_llcmp.obj
 0001:000c6ec0       ___llle                    004c7ec0     crt:_llcmp.obj
 0001:000c6ef0       ___llgt                    004c7ef0     crt:_llcmp.obj
 0001:000c6f20       ___llge                    004c7f20     crt:_llcmp.obj
 0001:000c6f50       ___lleq                    004c7f50     crt:_llcmp.obj
 0001:000c6f70       ___llne                    004c7f70     crt:_llcmp.obj
 0001:000c6f90       ___ulllt                   004c7f90     crt:_llcmp.obj
 0001:000c6fc0       ___ullle                   004c7fc0     crt:_llcmp.obj
 0001:000c6ff0       ___ullgt                   004c7ff0     crt:_llcmp.obj
 0001:000c7020       ___ullge                   004c8020     crt:_llcmp.obj
 0001:000c7050       _memcpy                    004c8050 f   crt:memcpy.obj
 0001:000c7080       _memset                    004c8080 f   crt:memset.obj
 0001:000c70b0       _exit                      004c80b0 f   crt:exit.obj
 0001:000c7100       ___ftoll                   004c8100     crt:_ftoll.obj
 0001:000c7130       ___llmod                   004c8130     crt:_llmod.obj
 0001:000c71f0       _fmod                      004c81f0 f   crt:fmod.obj
 0001:000c7390       _pow                       004c8390 f   crt:pow.obj
 0001:000c79d0       ___llshl                   004c89d0     crt:_llshl.obj
 0001:000c7a10       ___llshr                   004c8a10     crt:_llshr.obj
 0001:000c7a50       _strcmp                    004c8a50 f   crt:strcmp.obj
 0001:000c7a90       _strncmp                   004c8a90 f   crt:strncmp.obj
 0001:000c7ae0       _memmove                   004c8ae0 f   crt:memmove.obj
 0001:000c7b30       _modf                      004c8b30 f   crt:modf.obj
 0001:000c7ba0       _div                       004c8ba0 f   crt:div.obj
 0001:000c7bf0       ___lldiv                   004c8bf0     crt:_lldiv.obj
 0001:000c7ca0       _strchr                    004c8ca0 f   crt:strchr.obj
 0001:000c7cd0       _memcmp                    004c8cd0 f   crt:memcmp.obj
 0001:000c7d20       ___ullshr                  004c8d20     crt:_ullshr.obj
 0001:000c7d60       _time                      004c8d60 f   crt:time.obj
 0001:000c7db0       _srand                     004c8db0 f   crt:srand.obj
 0001:000c7dd0       _rand                      004c8dd0 f   crt:rand.obj
 0001:000c7e80       ___fpclass                 004c8e80 f   crt:_fpclass.obj
 0001:000c7ec0       ___init_closeall           004c8ec0 f   crt:fclose.obj
 0001:000c7ee0       _fclose                    004c8ee0 f   crt:fclose.obj
 0001:000c7ff0       _printf                    004c8ff0 f   crt:printf.obj
 0001:000c8060       _vfprintf                  004c9060 f   crt:vfprintf.obj
 0001:000c8090       _strrchr                   004c9090 f   crt:strrchr.obj
 0001:000c80c0       ___stoul                   004c90c0 f   crt:_stoul.obj
 0001:000c8260       __setmode                  004c9260 f   crt:setmode.obj
 0001:000c8340       __getdrive                 004c9340 f   crt:getdrive.obj
 0001:000c8390       __chdrive                  004c9390 f   crt:chdrive.obj
 0001:000c83f0       ___llmul                   004c93f0     crt:_llmul.obj
 0001:000c8430       _strstr                    004c9430 f   crt:strstr.obj
 0001:000c8480       _strerror                  004c9480 f   crt:strerror.obj
 0001:000c84a0       _strpbrk                   004c94a0 f   crt:strpbrk.obj
 0001:000c84e0       _memchr                    004c94e0 f   crt:memchr.obj
 0001:000c8550       _fprintf                   004c9550 f   crt:fprintf.obj
 0001:000c8580       _fflush                    004c9580 f   crt:fflush.obj
 0001:000c8660       __dup                      004c9660 f   crt:dup.obj
 0001:000c8760       __close                    004c9760 f   crt:close.obj
 0001:000c8830       ___ulldiv                  004c9830     crt:_ulldiv.obj
 0001:000c88a0       ___ullmod                  004c98a0     crt:_ullmod.obj
 0001:000c8920       ___fpsign                  004c9920 f   crt:_fpsign.obj
 0001:000c8930       _modfl                     004c9930 f   crt:modfl.obj
 0001:000c89a0       _strcpy                    004c99a0 f   crt:strcpy.obj
 0001:000c89f0       _sprintf                   004c99f0 f   crt:sprintf.obj
 0001:000c8a30       _strncpy                   004c9a30 f   crt:strncpy.obj
 0001:000c8d50       _malloc                    004c9d50 f   crt:malloc.obj
 0001:000c9150       _free                      004ca150 f   crt:free.obj
 0001:000c95d0       _fopen                     004ca5d0 f   crt:fopen.obj
 0001:000c95f0       __alloca                   004ca5f0     crt:_chkstk.obj
 0001:000c9610       ___chkstk                  004ca610     crt:_chkstk.obj
 0001:000c9640       _exp                       004ca640 f   crt:exp.obj
 0001:000c9730       ___log                     004ca730 f   crt:_log.obj
 0001:000c9930       _sqrt                      004ca930 f   crt:sqrt.obj
 0001:000c9a50       _wcslen                    004caa50 f   crt:wcslen.obj
 0001:000c9a80       _realloc                   004caa80 f   crt:realloc.obj
 0001:000ca670       _qsort                     004cb670 f   crt:qsort.obj
 0001:000ca690       _fgetc                     004cb690 f   crt:fgetc.obj
 0001:000ca710       _strlen                    004cb710 f   crt:strlen.obj
 0001:000ca730       _ceil                      004cb730 f   crt:ceil.obj
 0001:000ca788       __except_handler3          004cb788     crt:seh2.obj
 0001:000ca850       __seh_longjmp_unwind@4     004cb850     crt:seh2.obj
 0001:000ca870       __global_unwind2           004cb870     crt:seh1.obj
 0001:000ca8c0       __local_unwind2            004cb8c0     crt:seh1.obj
 0001:000ca91e       __NLG_Return2              004cb91e     crt:seh1.obj
 0001:000ca940       __abnormal_termination     004cb940     crt:seh1.obj
 0001:000ca970       __NLG_Notify1              004cb970     crt:seh1.obj
 0001:000ca97c       __NLG_Notify               004cb97c     crt:seh1.obj
 0001:000ca98f       __NLG_Dispatch             004cb98f     crt:seh1.obj
 0001:000ca9a0       ___getmem                  004cb9a0 f   crt:_getmem.obj
 0001:000caa00       __Exit                     004cba00 f   crt:_exit.obj
 0001:000caa10       ___clockinit               004cba10 f   crt:clock.obj
 0001:000caa20       _clock                     004cba20 f   crt:clock.obj
 0001:000caa70       ___ioinit                  004cba70 f   crt:_ioinit.obj
 0001:000cacf0       ___ioterm                  004cbcf0 f   crt:_ioinit.obj
 0001:000caf10       ___setargv                 004cbf10 f   crt:_setargv.obj
 0001:000cafb0       ___setenvp                 004cbfb0 f   crt:_setenvp.obj
 0001:000cb050       ___xcptfilter              004cc050 f   crt:_xcptfilter.obj
 0001:000cb0c0       ___fptest                  004cc0c0 f   crt:_fptest.obj
 0001:000cb140       __matherr                  004cc140 f   crt:_matherr.obj
 0001:000cb150       ___feraise                 004cc150 f   crt:_feraise.obj
 0001:000cb190       ___fpunscale               004cc190 f   crt:_fpunscale.obj
 0001:000cb240       ___fpscale                 004cc240 f   crt:_fpscale.obj
 0001:000cb490       ___fpint                   004cc490 f   crt:_fpint.obj
 0001:000cb620       ___ftol                    004cc620     crt:_ftol.obj
 0001:000cb650       ___exp                     004cc650 f   crt:_exp.obj
 0001:000cb7c0       __Atexit                   004cc7c0 f   crt:_atexit.obj
 0001:000cb800       _remove                    004cc800 f   crt:remove.obj
 0001:000cb810       _fwrite                    004cc810 f   crt:fwrite.obj
 0001:000cb940       ___printf                  004cc940 f   crt:_printf.obj
 0001:000cbbe0       ___maposerr                004ccbe0 f   crt:_maperr.obj
 0001:000cbd50       __Strerror                 004ccd50 f   crt:_strerror.obj
 0001:000cbf00       __write                    004ccf00 f   crt:write.obj
 0001:000cc130       ___new_osfhnd              004cd130 f   crt:_osfinfo.obj
 0001:000cc210       ___free_osfhnd             004cd210 f   crt:_osfinfo.obj
 0001:000cc2b0       ___set_osfhnd              004cd2b0 f   crt:_osfinfo.obj
 0001:000cc350       ___get_osfhnd              004cd350 f   crt:_osfinfo.obj
 0001:000cc3b0       ___fpintl                  004cd3b0 f   crt:_fpintl.obj
 0001:000cc3d0       ___fslot                   004cd3d0 f   crt:_fslot.obj
 0001:000cc430       ___fopen                   004cd430 f   crt:_fopen.obj
 0001:000cc5b0       ___fread                   004cd5b0 f   crt:_fread.obj
 0001:000cc720       _signal                    004cd720 f   crt:signal.obj
 0001:000cc790       _feraiseexcept             004cd790 f   crt:feraiseexcept.obj
 0001:000cc7d0       ___fpnorm                  004cd7d0 f   crt:_fpnorm.obj
 0001:000cc910       _abort                     004cd910 f   crt:abort.obj
 0001:000cc930       __unlink                   004cd930 f   crt:unlink.obj
 0001:000cc960       ___fwrite                  004cd960 f   crt:_fwrite.obj
 0001:000cca60       ___mbtowc                  004cda60 f   crt:_mbtowc.obj
 0001:000ccd40       ___putfield                004cdd40 f   crt:_putfield.obj
 0001:000cd3e0       ___puttxt                  004ce3e0 f   crt:_puttxt.obj
 0001:000cd6b0       __lseek                    004ce6b0 f   crt:lseek.obj
 0001:000cd770       ____fopen                  004ce770 f   crt:__fopen.obj
 0001:000cd7e0       __read                     004ce7e0 f   crt:read.obj
 0001:000cdb70       _fegetenv                  004ceb70 f   crt:fegetenv.obj
 0001:000cdb80       _fesetenv                  004ceb80 f   crt:fesetenv.obj
 0001:000cdb90       _raise                     004ceb90 f   crt:raise.obj
 0001:000cdcc0       ___putstr                  004cecc0 f   crt:_putstr.obj
 0001:000cde50       ___litob                   004cee50 f   crt:_litob.obj
 0001:000ce0b0       ___fptestl                 004cf0b0 f   crt:_fptestl.obj
 0001:000ce0d0       ___ldtob                   004cf0d0 f   crt:_ldtob.obj
 0001:000ce710       __open                     004cf710 f   crt:open.obj
 0001:000ce740       __sopen                    004cf740 f   crt:open.obj
 0001:000ceb30       _fputs                     004cfb30 f   crt:fputs.obj
 0001:000cec30       ___wctomb                  004cfc30 f   crt:_wctomb.obj
 0001:000cee90       ___fpunscalel              004cfe90 f   crt:_fpunscalel.obj
 0001:000ceeb0       ___fpscalel                004cfeb0 f   crt:_fpscalel.obj
 0001:000ceed0       _ldiv                      004cfed0 f   crt:ldiv.obj
 0001:000cef20       ___genld                   004cff20 f   crt:_genld.obj
 0001:000cf360       __chsize                   004d0360 f   crt:chsize.obj
 0001:000cf510       _RtlUnwind@16              004d0510     kernel32:KERNEL32.dll
 0001:000cf516       _EnumPrintersA@28          004d0516     winspool:WINSPOOL.DRV
 0001:000cf51c       _OpenPrinterA@12           004d051c     winspool:WINSPOOL.DRV
 0001:000cf522       _ClosePrinter@4            004d0522     winspool:WINSPOOL.DRV
 0001:000cf528       _GetPrinterA@20            004d0528     winspool:WINSPOOL.DRV
 0001:000cf52e       _SetPrinterA@16            004d052e     winspool:WINSPOOL.DRV
 0001:000cf534       _StartDocPrinterA@12       004d0534     winspool:WINSPOOL.DRV
 0001:000cf53a       _StartPagePrinter@4        004d053a     winspool:WINSPOOL.DRV
 0001:000cf540       _WritePrinter@16           004d0540     winspool:WINSPOOL.DRV
 0001:000cf546       _EndPagePrinter@4          004d0546     winspool:WINSPOOL.DRV
 0001:000cf54c       _EndDocPrinter@4           004d054c     winspool:WINSPOOL.DRV
 0001:000cf552       ___WSAFDIsSet@8            004d0552     wsock32:WSOCK32.dll
 0001:000cf560       _hb_strMatchRegExp         004d0560 f   xhb:strmatch.obj
 0001:000cf5b0       _hb_strMatchWild           004d05b0 f   xhb:strmatch.obj
 0001:000cf780       _hb_strMatchWildExact      004d0780 f   xhb:strmatch.obj
 0001:000cf980       _hb_strMatchCaseWildExact  004d0980 f   xhb:strmatch.obj
 0001:000cfb90       _hb_strMatchFile           004d0b90 f   xhb:strmatch.obj
 0001:000cfbb0       _HB_FUN_WILDMATCH          004d0bb0 f   xhb:strmatch.obj
 0001:000cfc50       _HB_FUN_HB_FILEMATCH       004d0c50 f   xhb:strmatch.obj
 0001:000cfcb0       _hb_gt_ForceLink_HB_GT_WIN 004d0cb0 f   xhb:mainstd.obj
 0001:000cfcc0       _main                      004d0cc0 f   xhb:mainstd.obj
 0001:000d1dc0       _HB_FUN_HB_GT_WIN          004d2dc0 f   xhb:gtwin.obj
 0001:000d1dd0       _HB_FUN_HB_GT_WIN_DEFAULT  004d2dd0 f   xhb:gtwin.obj
 0001:000d1df0       __inp                      004d2df0 f   xhb:xhbrtl.obj
 0001:000d1e00       __outp                     004d2e00 f   xhb:xhbrtl.obj
 0001:000d1e10       __ftol                     004d2e10 f   xhb:xhbrtl.obj
 0001:000d1e20       __allshr                   004d2e20 f   xhb:xhbrtl.obj
 0001:000d1e50       _isascii                   004d2e50 f   xhb:xhbrtl.obj
 0001:000d1e70       __dosmaperr                004d2e70 f   xhb:xhbrtl.obj
 0001:000d1ef0       _xCCGetLargestConsoleWindowSize 004d2ef0 f   xhb:xhbrtl.obj
 0001:000d1f10       _hb_hrbAsmPatch            004d2f10 f   xhb:xhbrtl.obj
 0001:000d1f70       _hb_hrbAsmPatchRelative    004d2f70 f   xhb:xhbrtl.obj
 0001:000d2170       _hb_gt_w32_tone            004d3170 f   xhb:gttone.obj
 0001:000d22a0       _hb_gt_w32_getKbdState     004d32a0 f   xhb:gtkbstat.obj
 0001:000d23d0       _hb_gt_w32_setKbdState     004d33d0 f   xhb:gtkbstat.obj
 0002:0001e440       ___xi_a                    004f2440     crt:_initex.obj
 0002:0001e4b8       ___xi_z                    004f24b8     crt:_initex.obj
 0002:0001e4b8       ___xt_a                    004f24b8     crt:_initex.obj
 0002:0001e4b8       ___xt_z                    004f24b8     crt:_initex.obj
 0003:000008e4       _pHVMFuncService           004f38e4     xhb:hvm.obj
 0003:000008e8       _hb_symEval                004f38e8     xhb:hvm.obj
 0003:0000091c       _hb_vm_sNull               004f391c     xhb:hvm.obj
 0003:00000920       _b_GUIErrorMessage         004f3920     xhb:hvm.obj
 0003:00000924       _hb_vm_bQuitRequest        004f3924     xhb:hvm.obj
 0003:00000928       _hb_vm_iTry                004f3928     xhb:hvm.obj
 0003:00000930       _hb_vm_BreakBlock          004f3930     xhb:hvm.obj
 0003:0000099c       _hb_cls_uiArrayClass       004f399c     xhb:classes.obj
 0003:0000099e       _hb_cls_uiBlockClass       004f399e     xhb:classes.obj
 0003:000009a0       _hb_cls_uiCharacterClass   004f39a0     xhb:classes.obj
 0003:000009a2       _hb_cls_uiDateClass        004f39a2     xhb:classes.obj
 0003:000009a4       _hb_cls_uiTimeFlagClass    004f39a4     xhb:classes.obj
 0003:000009a6       _hb_cls_uiLogicalClass     004f39a6     xhb:classes.obj
 0003:000009a8       _hb_cls_uiNilClass         004f39a8     xhb:classes.obj
 0003:000009aa       _hb_cls_uiNumericClass     004f39aa     xhb:classes.obj
 0003:000009ac       _hb_cls_uiPointerClass     004f39ac     xhb:classes.obj
 0003:000009ae       _hb_cls_uiHashClass        004f39ae     xhb:classes.obj
 0003:000021c8       _hb_gc_bReleaseAll         004f51c8     xhb:garbage.obj
 0003:000021e0       _hb_errFuncName            004f51e0     xhb:errorapi.obj
 0003:000021f4       _hb_stack_ptr              004f51f4     xhb:estack.obj
 0003:000021f8       _hb_stack_ready            004f51f8     xhb:estack.obj
 0003:0000221c       _hb_hInstance              004f521c     xhb:cmdarg.obj
 0003:00002220       _hb_hPrevInstance          004f5220     xhb:cmdarg.obj
 0003:00002224       _hb_iCmdShow               004f5224     xhb:cmdarg.obj
 0003:00002228       _s_WinMainParam            004f5228     xhb:cmdarg.obj
 0003:00002264       _hb_szAscii                004f5264     xhb:hbstr.obj
 0003:00002ab4       _hb_vm_bCollectGarbage     004f5ab4     xhb:idle.obj
 0003:00002e30       _hb_uniTbl_437             004f5e30     xhb:cdpapi.obj
 0003:000030c8       _hb_cdp_page               004f60c8     xhb:cdpapi.obj
 0003:000030cc       _hb_comp_bShortCuts        004f60cc     xhb:macro.obj
 0003:000030d4       _hb_tr_file_               004f60d4     xhb:hbtrace.obj
 0003:000030d8       _hb_tr_line_               004f60d8     xhb:hbtrace.obj
 0003:000030dc       _hb_tr_level_              004f60dc     xhb:hbtrace.obj
 0003:0000456c       _pcre_malloc               004f756c     xhb:pcre_globals.obj
 0003:00004570       _pcre_free                 004f7570     xhb:pcre_globals.obj
 0003:00004574       _pcre_stack_malloc         004f7574     xhb:pcre_globals.obj
 0003:00004578       _pcre_stack_free           004f7578     xhb:pcre_globals.obj
 0003:0000457c       _pcre_callout              004f757c     xhb:pcre_globals.obj
 0003:00004930       _hb_gt_szNameDefault       004f7930     xhb:hbgtcore.obj
 0003:000053cc       _yytext                    004f83cc     xhb:macroslx.obj
 0003:00005494       _aPairs                    004f8494     xhb:macroslx.obj
 0003:00006184       __pcre_OP_lengths          004f9184     xhb:pcre_tables.obj
 0003:00006220       __pcre_utf8_table1         004f9220     xhb:pcre_tables.obj
 0003:00006238       __pcre_utf8_table1_size    004f9238     xhb:pcre_tables.obj
 0003:0000623c       __pcre_utf8_table2         004f923c     xhb:pcre_tables.obj
 0003:00006254       __pcre_utf8_table3         004f9254     xhb:pcre_tables.obj
 0003:0000626c       __pcre_utf8_table4         004f926c     xhb:pcre_tables.obj
 0003:000062ac       __pcre_ucp_gentype         004f92ac     xhb:pcre_tables.obj
 0003:00006324       __pcre_utt_names           004f9324     xhb:pcre_tables.obj
 0003:000066ea       __pcre_utt                 004f96ea     xhb:pcre_tables.obj
 0003:00006a28       __pcre_utt_size            004f9a28     xhb:pcre_tables.obj
 0003:00006a2c       __pcre_default_tables      004f9a2c     xhb:pcre_chartables.obj
 0003:00006e6c       _hb_comp_ExprTable         004f9e6c     xhb:macrob.obj
 0003:00007188       __Atfuns                   004fa188     crt:exit.obj
 0003:000072c8       __Atcount                  004fa2c8     crt:exit.obj
 0003:000072cc       __Atcount0                 004fa2cc     crt:exit.obj
 0003:000072d0       ___randinit                004fa2d0     crt:rand.obj
 0003:000072d4       ___randseed                004fa2d4     crt:rand.obj
 0003:000072e0       ___ctypetab                004fa2e0     crt:_ctype.obj
 0003:000072e4       ___touppertab              004fa2e4     crt:_touppertab.obj
 0003:00007338       ___stdin                   004fa338     crt:_files.obj
 0003:00007384       ___stdout                  004fa384     crt:_files.obj
 0003:000073d0       ___stderr                  004fa3d0     crt:_files.obj
 0003:0000741c       ___filetab                 004fa41c     crt:_files.obj
 0003:0000745c       ___malloc_rovers           004fa45c     crt:malloc.obj
 0003:00007480       ___malloc_hiword           004fa480     crt:malloc.obj
 0003:00007484       ___malloc_loword           004fa484     crt:malloc.obj
 0003:00007488       ___malloc_mem              004fa488     crt:malloc.obj
 0003:0000748c       ___malloc_binmax           004fa48c     crt:malloc.obj
 0003:0000749c       ___malloc_firstbin         004fa49c     crt:malloc.obj
 0003:000074a0       ___malloc_lastbin          004fa4a0     crt:malloc.obj
 0003:000074a4       __NLG_Destination          004fa4a4     crt:seh1.obj
 0003:00007504       ___inf                     004fa504     crt:_values.obj
 0003:0000750c       ___nan                     004fa50c     crt:_values.obj
 0003:00007514       ___eps                     004fa514     crt:_values.obj
 0003:0000751c       ___rteps                   004fa51c     crt:_values.obj
 0003:00007524       ___xbig                    004fa524     crt:_values.obj
 0003:0000752c       ___zero                    004fa52c     crt:_values.obj
 0003:00007534       ___tolowertab              004fa534     crt:_tolowertab.obj
 0003:00007538       _errno                     004fa538     crt:errno.obj
 0003:0000753c       ___infl                    004fa53c     crt:_lvalues.obj
 0003:00007544       ___nanl                    004fa544     crt:_lvalues.obj
 0003:0000754c       ___epsl                    004fa54c     crt:_lvalues.obj
 0003:00007554       ___rtepsl                  004fa554     crt:_lvalues.obj
 0003:0000755c       ___xbigl                   004fa55c     crt:_lvalues.obj
 0003:00007564       ___zerol                   004fa564     crt:_lvalues.obj
 0003:0000756c       ___inff                    004fa56c     crt:_fvalues.obj
 0003:00007574       ___nanf                    004fa574     crt:_fvalues.obj
 0003:0000757c       ___epsf                    004fa57c     crt:_fvalues.obj
 0003:00007584       ___rtepsf                  004fa584     crt:_fvalues.obj
 0003:0000758c       ___xbigf                   004fa58c     crt:_fvalues.obj
 0003:00007590       ___zerof                   004fa590     crt:_fvalues.obj
 0003:00007594       ___sigtab                  004fa594     crt:signal.obj
 0003:00007648       ___mbcurmax                004fa648     crt:_state.obj
 0003:0000764c       ___collatetab              004fa64c     crt:_state.obj
 0003:0000768c       ___wcollatetab             004fa68c     crt:_state.obj
 0003:000076cc       ___mbtowctab               004fa6cc     crt:_state.obj
 0003:0000770c       ___wctombtab               004fa70c     crt:_state.obj
 0003:0000774c       ___locale                  004fa74c     crt:localeconv.obj
 0003:000077a4       __doserrno                 004fa7a4     xhb:xhbrtl.obj
 0003:00007910       __IMPORT_DESCRIPTOR_KERNEL32 004fa910     kernel32:KERNEL32.dll
 0003:00007924       __IMPORT_DESCRIPTOR_USER32 004fa924     user32:USER32.dll
 0003:00007938       __IMPORT_DESCRIPTOR_WINSPOOL 004fa938     winspool:WINSPOOL.DRV
 0003:0000794c       __IMPORT_DESCRIPTOR_ole32  004fa94c     ole32:ole32.dll
 0003:00007960       __IMPORT_DESCRIPTOR_WSOCK32 004fa960     wsock32:WSOCK32.dll
 0003:00007974       __IMPORT_DESCRIPTOR_ADVAPI32 004fa974     advapi32:ADVAPI32.dll
 0003:00007988       __NULL_IMPORT_DESCRIPTOR   004fa988     kernel32:KERNEL32.dll
 0003:00007c60       __imp__OutputDebugStringA@4 004fac60     kernel32:KERNEL32.dll
 0003:00007c64       __imp__HeapAlloc@12        004fac64     kernel32:KERNEL32.dll
 0003:00007c68       __imp__HeapFree@12         004fac68     kernel32:KERNEL32.dll
 0003:00007c6c       __imp__HeapReAlloc@16      004fac6c     kernel32:KERNEL32.dll
 0003:00007c70       __imp__GetProcessHeap@0    004fac70     kernel32:KERNEL32.dll
 0003:00007c74       __imp__GlobalMemoryStatus@4 004fac74     kernel32:KERNEL32.dll
 0003:00007c78       __imp__GetStdHandle@4      004fac78     kernel32:KERNEL32.dll
 0003:00007c7c       __imp__CreatePipe@16       004fac7c     kernel32:KERNEL32.dll
 0003:00007c80       __imp__SearchPathA@24      004fac80     kernel32:KERNEL32.dll
 0003:00007c84       __imp__CreateProcessA@40   004fac84     kernel32:KERNEL32.dll
 0003:00007c88       __imp__CloseHandle@4       004fac88     kernel32:KERNEL32.dll
 0003:00007c8c       __imp__WaitForSingleObject@8 004fac8c     kernel32:KERNEL32.dll
 0003:00007c90       __imp__GetExitCodeProcess@8 004fac90     kernel32:KERNEL32.dll
 0003:00007c94       __imp__TerminateProcess@8  004fac94     kernel32:KERNEL32.dll
 0003:00007c98       __imp__CreateFileA@28      004fac98     kernel32:KERNEL32.dll
 0003:00007c9c       __imp__GetFileTime@16      004fac9c     kernel32:KERNEL32.dll
 0003:00007ca0       __imp__FileTimeToLocalFileTime@8 004faca0     kernel32:KERNEL32.dll
 0003:00007ca4       __imp__FileTimeToSystemTime@8 004faca4     kernel32:KERNEL32.dll
 0003:00007ca8       __imp__GetFileAttributesA@4 004faca8     kernel32:KERNEL32.dll
 0003:00007cac       __imp__GetLocalTime@4      004facac     kernel32:KERNEL32.dll
 0003:00007cb0       __imp__SystemTimeToFileTime@8 004facb0     kernel32:KERNEL32.dll
 0003:00007cb4       __imp__LocalFileTimeToFileTime@8 004facb4     kernel32:KERNEL32.dll
 0003:00007cb8       __imp__SetFileTime@16      004facb8     kernel32:KERNEL32.dll
 0003:00007cbc       __imp__SetFileAttributesA@8 004facbc     kernel32:KERNEL32.dll
 0003:00007cc0       __imp__ReadFile@20         004facc0     kernel32:KERNEL32.dll
 0003:00007cc4       __imp__WriteFile@20        004facc4     kernel32:KERNEL32.dll
 0003:00007cc8       __imp__SetEndOfFile@4      004facc8     kernel32:KERNEL32.dll
 0003:00007ccc       __imp__SetFilePointer@16   004faccc     kernel32:KERNEL32.dll
 0003:00007cd0       __imp__FlushFileBuffers@4  004facd0     kernel32:KERNEL32.dll
 0003:00007cd4       __imp__LockFileEx@24       004facd4     kernel32:KERNEL32.dll
 0003:00007cd8       __imp__LockFile@20         004facd8     kernel32:KERNEL32.dll
 0003:00007cdc       __imp__UnlockFileEx@20     004facdc     kernel32:KERNEL32.dll
 0003:00007ce0       __imp__UnlockFile@20       004face0     kernel32:KERNEL32.dll
 0003:00007ce4       __imp__DeleteFileA@4       004face4     kernel32:KERNEL32.dll
 0003:00007ce8       __imp__MoveFileA@8         004face8     kernel32:KERNEL32.dll
 0003:00007cec       __imp__CreateDirectoryA@8  004facec     kernel32:KERNEL32.dll
 0003:00007cf0       __imp__SetCurrentDirectoryA@4 004facf0     kernel32:KERNEL32.dll
 0003:00007cf4       __imp__RemoveDirectoryA@4  004facf4     kernel32:KERNEL32.dll
 0003:00007cf8       __imp__GetCurrentDirectoryA@8 004facf8     kernel32:KERNEL32.dll
 0003:00007cfc       __imp__GetDriveTypeA@4     004facfc     kernel32:KERNEL32.dll
 0003:00007d00       __imp__GetFileType@4       004fad00     kernel32:KERNEL32.dll
 0003:00007d04       __imp__GetLastError@0      004fad04     kernel32:KERNEL32.dll
 0003:00007d08       __imp__FindResourceA@12    004fad08     kernel32:KERNEL32.dll
 0003:00007d0c       __imp__LoadResource@8      004fad0c     kernel32:KERNEL32.dll
 0003:00007d10       __imp__LockResource@4      004fad10     kernel32:KERNEL32.dll
 0003:00007d14       __imp__Sleep@4             004fad14     kernel32:KERNEL32.dll
 0003:00007d18       __imp__GetCurrentThreadId@0 004fad18     kernel32:KERNEL32.dll
 0003:00007d1c       __imp__SetErrorMode@4      004fad1c     kernel32:KERNEL32.dll
 0003:00007d20       __imp__SetUnhandledExceptionFilter@4 004fad20     kernel32:KERNEL32.dll
 0003:00007d24       __imp__SetConsoleCtrlHandler@8 004fad24     kernel32:KERNEL32.dll
 0003:00007d28       __imp__FreeConsole@0       004fad28     kernel32:KERNEL32.dll
 0003:00007d2c       __imp__GetEnvironmentVariableA@12 004fad2c     kernel32:KERNEL32.dll
 0003:00007d30       __imp__GetVersionExA@4     004fad30     kernel32:KERNEL32.dll
 0003:00007d34       __imp__FindFirstFileA@8    004fad34     kernel32:KERNEL32.dll
 0003:00007d38       __imp__CompareFileTime@8   004fad38     kernel32:KERNEL32.dll
 0003:00007d3c       __imp__FindNextFileA@8     004fad3c     kernel32:KERNEL32.dll
 0003:00007d40       __imp__FindClose@4         004fad40     kernel32:KERNEL32.dll
 0003:00007d44       __imp__GetVolumeInformationA@32 004fad44     kernel32:KERNEL32.dll
 0003:00007d48       __imp__LoadLibraryA@4      004fad48     kernel32:KERNEL32.dll
 0003:00007d4c       __imp__GetProcAddress@8    004fad4c     kernel32:KERNEL32.dll
 0003:00007d50       __imp__FreeLibrary@4       004fad50     kernel32:KERNEL32.dll
 0003:00007d54       __imp__GetProfileStringA@20 004fad54     kernel32:KERNEL32.dll
 0003:00007d58       __imp__lstrlenA@4          004fad58     kernel32:KERNEL32.dll
 0003:00007d5c       __imp__lstrcpyA@8          004fad5c     kernel32:KERNEL32.dll
 0003:00007d60       __imp__SetLastError@4      004fad60     kernel32:KERNEL32.dll
 0003:00007d64       __imp__GlobalAlloc@8       004fad64     kernel32:KERNEL32.dll
 0003:00007d68       __imp__GlobalFree@4        004fad68     kernel32:KERNEL32.dll
 0003:00007d6c       __imp__lstrcatA@8          004fad6c     kernel32:KERNEL32.dll
 0003:00007d70       __imp__WriteProfileStringA@12 004fad70     kernel32:KERNEL32.dll
 0003:00007d74       __imp__GetTempPathA@8      004fad74     kernel32:KERNEL32.dll
 0003:00007d78       __imp__GetTempFileNameA@16 004fad78     kernel32:KERNEL32.dll
 0003:00007d7c       __imp__GetCurrentProcess@0 004fad7c     kernel32:KERNEL32.dll
 0003:00007d80       __imp__GetProcessTimes@20  004fad80     kernel32:KERNEL32.dll
 0003:00007d84       __imp__GlobalLock@4        004fad84     kernel32:KERNEL32.dll
 0003:00007d88       __imp__GlobalUnlock@4      004fad88     kernel32:KERNEL32.dll
 0003:00007d8c       __imp__GlobalSize@4        004fad8c     kernel32:KERNEL32.dll
 0003:00007d90       __imp__GetComputerNameA@8  004fad90     kernel32:KERNEL32.dll
 0003:00007d94       __imp__GetModuleHandleA@4  004fad94     kernel32:KERNEL32.dll
 0003:00007d98       __imp__GetDiskFreeSpaceA@20 004fad98     kernel32:KERNEL32.dll
 0003:00007d9c       __imp__MultiByteToWideChar@24 004fad9c     kernel32:KERNEL32.dll
 0003:00007da0       __imp__WideCharToMultiByte@32 004fada0     kernel32:KERNEL32.dll
 0003:00007da4       __imp__VirtualAlloc@16     004fada4     kernel32:KERNEL32.dll
 0003:00007da8       __imp__GetSystemTimeAsFileTime@4 004fada8     kernel32:KERNEL32.dll
 0003:00007dac       __imp__DuplicateHandle@28  004fadac     kernel32:KERNEL32.dll
 0003:00007db0       __imp__RtlUnwind@16        004fadb0     kernel32:KERNEL32.dll
 0003:00007db4       __imp__VirtualQuery@12     004fadb4     kernel32:KERNEL32.dll
 0003:00007db8       __imp__ExitProcess@4       004fadb8     kernel32:KERNEL32.dll
 0003:00007dbc       __imp__GetStartupInfoA@4   004fadbc     kernel32:KERNEL32.dll
 0003:00007dc0       __imp__SetHandleCount@4    004fadc0     kernel32:KERNEL32.dll
 0003:00007dc4       __imp__GetCommandLineA@0   004fadc4     kernel32:KERNEL32.dll
 0003:00007dc8       __imp__GetModuleFileNameA@12 004fadc8     kernel32:KERNEL32.dll
 0003:00007dcc       __imp__GetEnvironmentStrings@0 004fadcc     kernel32:KERNEL32.dll
 0003:00007dd0       __imp__UnhandledExceptionFilter@4 004fadd0     kernel32:KERNEL32.dll
 0003:00007dd4       __imp__SetStdHandle@8      004fadd4     kernel32:KERNEL32.dll
 0003:00007dd8       __imp__SetConsoleCursorPosition@8 004fadd8     kernel32:KERNEL32.dll
 0003:00007ddc       __imp__SetConsoleCursorInfo@8 004faddc     kernel32:KERNEL32.dll
 0003:00007de0       __imp__WriteConsoleOutputA@20 004fade0     kernel32:KERNEL32.dll
 0003:00007de4       __imp__GetConsoleScreenBufferInfo@8 004fade4     kernel32:KERNEL32.dll
 0003:00007de8       __imp__ReadConsoleOutputA@20 004fade8     kernel32:KERNEL32.dll
 0003:00007dec       __imp__AllocConsole@0      004fadec     kernel32:KERNEL32.dll
 0003:00007df0       __imp__SetConsoleWindowInfo@12 004fadf0     kernel32:KERNEL32.dll
 0003:00007df4       __imp__SetConsoleScreenBufferSize@8 004fadf4     kernel32:KERNEL32.dll
 0003:00007df8       __imp__GetConsoleMode@8    004fadf8     kernel32:KERNEL32.dll
 0003:00007dfc       __imp__SetConsoleMode@8    004fadfc     kernel32:KERNEL32.dll
 0003:00007e00       __imp__GetNumberOfConsoleInputEvents@8 004fae00     kernel32:KERNEL32.dll
 0003:00007e04       __imp__ReadConsoleInputA@16 004fae04     kernel32:KERNEL32.dll
 0003:00007e08       __imp__GetConsoleCP@0      004fae08     kernel32:KERNEL32.dll
 0003:00007e0c       __imp__SetConsoleCP@4      004fae0c     kernel32:KERNEL32.dll
 0003:00007e10       __imp__SetConsoleOutputCP@4 004fae10     kernel32:KERNEL32.dll
 0003:00007e14       __imp__GetConsoleTitleA@8  004fae14     kernel32:KERNEL32.dll
 0003:00007e18       __imp__SetConsoleTitleA@4  004fae18     kernel32:KERNEL32.dll
 0003:00007e1c       __imp__GetNumberOfConsoleMouseButtons@4 004fae1c     kernel32:KERNEL32.dll
 0003:00007e20       __imp__GetLargestConsoleWindowSize@4 004fae20     kernel32:KERNEL32.dll
 0003:00007e24       __imp__Beep@8              004fae24     kernel32:KERNEL32.dll
 0003:00007e28       KERNEL32_NULL_THUNK_DATA  004fae28     kernel32:KERNEL32.dll
 0003:00007e2c       __imp__MessageBoxA@16      004fae2c     user32:USER32.dll
 0003:00007e30       __imp__WaitMessage@0       004fae30     user32:USER32.dll
 0003:00007e34       __imp__CallNextHookEx@16   004fae34     user32:USER32.dll
 0003:00007e38       __imp__SetWindowsHookExA@16 004fae38     user32:USER32.dll
 0003:00007e3c       __imp__UnhookWindowsHookEx@4 004fae3c     user32:USER32.dll
 0003:00007e40       __imp__PeekMessageA@20     004fae40     user32:USER32.dll
 0003:00007e44       __imp__GetSystemMetrics@4  004fae44     user32:USER32.dll
 0003:00007e48       __imp__SendMessageTimeoutA@28 004fae48     user32:USER32.dll
 0003:00007e4c       __imp__OpenClipboard@4     004fae4c     user32:USER32.dll
 0003:00007e50       __imp__EmptyClipboard@0    004fae50     user32:USER32.dll
 0003:00007e54       __imp__SetClipboardData@8  004fae54     user32:USER32.dll
 0003:00007e58       __imp__CloseClipboard@0    004fae58     user32:USER32.dll
 0003:00007e5c       __imp__IsClipboardFormatAvailable@4 004fae5c     user32:USER32.dll
 0003:00007e60       __imp__GetClipboardData@4  004fae60     user32:USER32.dll
 0003:00007e64       __imp__GetKeyState@4       004fae64     user32:USER32.dll
 0003:00007e68       __imp__GetKeyboardState@4  004fae68     user32:USER32.dll
 0003:00007e6c       __imp__SetKeyboardState@4  004fae6c     user32:USER32.dll
 0003:00007e70       USER32_NULL_THUNK_DATA    004fae70     user32:USER32.dll
 0003:00007e74       __imp__EnumPrintersA@28    004fae74     winspool:WINSPOOL.DRV
 0003:00007e78       __imp__OpenPrinterA@12     004fae78     winspool:WINSPOOL.DRV
 0003:00007e7c       __imp__ClosePrinter@4      004fae7c     winspool:WINSPOOL.DRV
 0003:00007e80       __imp__GetPrinterA@20      004fae80     winspool:WINSPOOL.DRV
 0003:00007e84       __imp__SetPrinterA@16      004fae84     winspool:WINSPOOL.DRV
 0003:00007e88       __imp__StartDocPrinterA@12 004fae88     winspool:WINSPOOL.DRV
 0003:00007e8c       __imp__StartPagePrinter@4  004fae8c     winspool:WINSPOOL.DRV
 0003:00007e90       __imp__WritePrinter@16     004fae90     winspool:WINSPOOL.DRV
 0003:00007e94       __imp__EndPagePrinter@4    004fae94     winspool:WINSPOOL.DRV
 0003:00007e98       __imp__EndDocPrinter@4     004fae98     winspool:WINSPOOL.DRV
 0003:00007e9c       WINSPOOL_NULL_THUNK_DATA  004fae9c     winspool:WINSPOOL.DRV
 0003:00007ea0       __imp__OleInitialize@4     004faea0     ole32:ole32.dll
 0003:00007ea4       __imp__OleUninitialize@0   004faea4     ole32:ole32.dll
 0003:00007ea8       ole32_NULL_THUNK_DATA     004faea8     ole32:ole32.dll
 0003:00007eac       __imp__select@20           004faeac     wsock32:WSOCK32.dll
 0003:00007eb0       __imp____WSAFDIsSet@8      004faeb0     wsock32:WSOCK32.dll
 0003:00007eb4       __imp__inet_addr@4         004faeb4     wsock32:WSOCK32.dll
 0003:00007eb8       __imp__gethostbyaddr@12    004faeb8     wsock32:WSOCK32.dll
 0003:00007ebc       __imp__gethostbyname@4     004faebc     wsock32:WSOCK32.dll
 0003:00007ec0       __imp__WSAGetLastError@0   004faec0     wsock32:WSOCK32.dll
 0003:00007ec4       __imp__WSASetLastError@4   004faec4     wsock32:WSOCK32.dll
 0003:00007ec8       __imp__ioctlsocket@12      004faec8     wsock32:WSOCK32.dll
 0003:00007ecc       __imp__setsockopt@20       004faecc     wsock32:WSOCK32.dll
 0003:00007ed0       __imp__connect@12          004faed0     wsock32:WSOCK32.dll
 0003:00007ed4       __imp__getsockopt@20       004faed4     wsock32:WSOCK32.dll
 0003:00007ed8       __imp__shutdown@8          004faed8     wsock32:WSOCK32.dll
 0003:00007edc       __imp__closesocket@4       004faedc     wsock32:WSOCK32.dll
 0003:00007ee0       __imp__WSAStartup@8        004faee0     wsock32:WSOCK32.dll
 0003:00007ee4       __imp__WSACleanup@0        004faee4     wsock32:WSOCK32.dll
 0003:00007ee8       __imp__inet_ntoa@4         004faee8     wsock32:WSOCK32.dll
 0003:00007eec       __imp__ntohs@4             004faeec     wsock32:WSOCK32.dll
 0003:00007ef0       __imp__recv@16             004faef0     wsock32:WSOCK32.dll
 0003:00007ef4       __imp__send@16             004faef4     wsock32:WSOCK32.dll
 0003:00007ef8       __imp__socket@12           004faef8     wsock32:WSOCK32.dll
 0003:00007efc       __imp__htons@4             004faefc     wsock32:WSOCK32.dll
 0003:00007f00       __imp__bind@12             004faf00     wsock32:WSOCK32.dll
 0003:00007f04       __imp__listen@8            004faf04     wsock32:WSOCK32.dll
 0003:00007f08       __imp__accept@12           004faf08     wsock32:WSOCK32.dll
 0003:00007f0c       __imp__htonl@4             004faf0c     wsock32:WSOCK32.dll
 0003:00007f10       __imp__sendto@24           004faf10     wsock32:WSOCK32.dll
 0003:00007f14       __imp__recvfrom@24         004faf14     wsock32:WSOCK32.dll
 0003:00007f18       WSOCK32_NULL_THUNK_DATA   004faf18     wsock32:WSOCK32.dll
 0003:00007f1c       __imp__GetUserNameA@8      004faf1c     advapi32:ADVAPI32.dll
 0003:00007f20       ADVAPI32_NULL_THUNK_DATA  004faf20     advapi32:ADVAPI32.dll
 0003:0000edd4       _hb_stackST                00501dd4     <common>
 0003:000104ac       _s_PrintFileName           005034ac     <common>
 0003:000105b4       _s_PrinterName             005035b4     <common>
 0003:000106bc       _s_isDefaultPrinterDevice  005036bc     <common>
 0003:000106c0       _yyleng                    005036c0     <common>
 0003:000106c4       __fltused                  005036c4     <common>
 0003:000106c8       ___crtheap                 005036c8     <common>
 0003:000106cc       ___argv                    005036cc     <common>
 0003:000106d0       ___argc                    005036d0     <common>
 0003:000106d4       ___iolim                   005036d4     <common>
 0003:000106d8       ___iotab                   005036d8     <common>
 0003:000107d8       ___envp                    005037d8     <common>

 entry point at        0001:000c6d90

 Static symbols

 0001:00000000       _hb_vm_SymbolInit_CONSULTAMARCA 00401000 f   consultaMarca.obj
 0001:000000f0       _HB_FUN_TIPCLIENTHTTP_NEW  004010f0 f   xhb:httpcln.obj
 0001:00000110       _HB_FUN_TIPCLIENTHTTP_GET  00401110 f   xhb:httpcln.obj
 0001:00000130       _HB_FUN_TIPCLIENTHTTP_POST 00401130 f   xhb:httpcln.obj
 0001:00000170       _HB_FUN_TIPCLIENTHTTP_READHEADERS 00401170 f   xhb:httpcln.obj
 0001:00000190       _HB_FUN_TIPCLIENTHTTP_READ 00401190 f   xhb:httpcln.obj
 0001:000001b0       _HB_FUN_TIPCLIENTHTTP_READALL 004011b0 f   xhb:httpcln.obj
 0001:000001d0       _HB_FUN_TIPCLIENTHTTP_SETCOOKIE 004011d0 f   xhb:httpcln.obj
 0001:000001f0       _HB_FUN_TIPCLIENTHTTP_GETCOOKIES 004011f0 f   xhb:httpcln.obj
 0001:00000210       _HB_FUN_TIPCLIENTHTTP_BOUNDARY 00401210 f   xhb:httpcln.obj
 0001:00000230       _HB_FUN_TIPCLIENTHTTP_ATTACH 00401230 f   xhb:httpcln.obj
 0001:00000250       _HB_FUN_TIPCLIENTHTTP_POSTMULTIPART 00401250 f   xhb:httpcln.obj
 0001:00000270       _HB_FUN_TIPCLIENTHTTP_WRITEALL 00401270 f   xhb:httpcln.obj
 0001:000000d0       _HB_FUN_TIPCLIENTHTTP_HTTPCLNDESTRUCTOR 004010d0 f   xhb:httpcln.obj
 0001:00000150       _HB_FUN_TIPCLIENTHTTP_STANDARDFIELDS 00401150 f   xhb:httpcln.obj
 0001:00000290       _hb_INITSTATICS            00401290 f   xhb:httpcln.obj
 0001:00000060       _hb_vm_SymbolInit_HTTPCLN  00401060 f   xhb:httpcln.obj
 0001:000002b0       _s_memicmp                 004012b0 f   xhb:hash.obj
 0001:00000410       _s_hashOrderComplex        00401410 f   xhb:hash.obj
 0001:00000620       _hb_hashSurfaceScan        00401620 f   xhb:hash.obj
 0001:00000750       _hb_calcTotalLenght        00401750 f   xhb:hash.obj
 0001:000046a0       _hb_conOutDev              004056a0 f   xhb:console.obj
 0001:00004720       _hb_itemStringCon          00405720 f   xhb:console.obj
 0001:00004780       _hb_conOut                 00405780 f   xhb:console.obj
 0001:00004ad0       _hb_conDevPos              00405ad0 f   xhb:console.obj
 0001:000142d0       _hb_vmDoBlock              004152d0 f   xhb:hvm.obj
 0001:00005370       _hb_vmDoInitFunc           00406370 f   xhb:hvm.obj
 0001:00005300       _hb_vmDoInitError          00406300 f   xhb:hvm.obj
 0001:00014610       _hb_vmDebugEntry           00415610 f   xhb:hvm.obj
 0001:00018080       _hb_vmDoInitStatics        00419080 f   xhb:hvm.obj
 0001:00005230       _hb_vmDoModuleFunctions    00406230 f   xhb:hvm.obj
 0001:00018170       _hb_vmDoInitFunctions      00419170 f   xhb:hvm.obj
 0001:00014850       _hb_vmDebuggerExit         00415850 f   xhb:hvm.obj
 0001:000051e0       _hb_vmCleanModuleFunctions 004061e0 f   xhb:hvm.obj
 0001:0000a4d0       _hb_vmNegate               0040b4d0 f   xhb:hvm.obj
 0001:0000a770       _hb_vmPlus                 0040b770 f   xhb:hvm.obj
 0001:0000ad90       _hb_vmMinus                0040bd90 f   xhb:hvm.obj
 0001:0000ba80       _hb_vmMult                 0040ca80 f   xhb:hvm.obj
 0001:0000bc50       _hb_vmDivide               0040cc50 f   xhb:hvm.obj
 0001:0000bf50       _hb_vmModulus              0040cf50 f   xhb:hvm.obj
 0001:0000c4f0       _hb_vmPower                0040d4f0 f   xhb:hvm.obj
 0001:00010290       _hb_vmBitAnd               00411290 f   xhb:hvm.obj
 0001:00010950       _hb_vmBitOr                00411950 f   xhb:hvm.obj
 0001:00011010       _hb_vmBitXor               00412010 f   xhb:hvm.obj
 0001:000118c0       _hb_vmBitShiftRight        004128c0 f   xhb:hvm.obj
 0001:000116d0       _hb_vmBitShiftLeft         004126d0 f   xhb:hvm.obj
 0001:0000c6b0       _hb_vmInc                  0040d6b0 f   xhb:hvm.obj
 0001:0000c930       _hb_vmDec                  0040d930 f   xhb:hvm.obj
 0001:0000cbb0       _hb_vmFuncPtr              0040dbb0 f   xhb:hvm.obj
 0001:0000cc00       _hb_vmEqual                0040dc00 f   xhb:hvm.obj
 0001:0000d7f0       _hb_vmNotEqual             0040e7f0 f   xhb:hvm.obj
 0001:0000e0b0       _hb_vmLess                 0040f0b0 f   xhb:hvm.obj
 0001:0000e560       _hb_vmLessEqual            0040f560 f   xhb:hvm.obj
 0001:0000ea10       _hb_vmGreater              0040fa10 f   xhb:hvm.obj
 0001:0000eec0       _hb_vmGreaterEqual         0040fec0 f   xhb:hvm.obj
 0001:0000f370       _hb_vmInstringOrArray      00410370 f   xhb:hvm.obj
 0001:0000fa30       _hb_vmForTest              00410a30 f   xhb:hvm.obj
 0001:0000fe60       _hb_vmNot                  00410e60 f   xhb:hvm.obj
 0001:0000ff50       _hb_vmAnd                  00410f50 f   xhb:hvm.obj
 0001:000100f0       _hb_vmOr                   004110f0 f   xhb:hvm.obj
 0001:00011ab0       _hb_vmArrayPush            00412ab0 f   xhb:hvm.obj
 0001:000122d0       _hb_vmArrayPushRef         004132d0 f   xhb:hvm.obj
 0001:000125e0       _hb_vmArrayPop             004135e0 f   xhb:hvm.obj
 0001:00012f30       _hb_vmArrayDim             00413f30 f   xhb:hvm.obj
 0001:00013000       _hb_vmArrayGen             00414000 f   xhb:hvm.obj
 0001:00013130       _hb_vmHashGen              00414130 f   xhb:hvm.obj
 0001:00013690       _hb_vmSwapAlias            00414690 f   xhb:hvm.obj
 0001:000138f0       _hb_vmClassError           004148f0 f   xhb:hvm.obj
 0001:00014980       _hb_vmDebuggerShowLine     00415980 f   xhb:hvm.obj
 0001:000149c0       _hb_vmFrame                004159c0 f   xhb:hvm.obj
 0001:000154f0       _hb_vmSFrame               004164f0 f   xhb:hvm.obj
 0001:00015500       _hb_vmStatics              00416500 f   xhb:hvm.obj
 0001:000155c0       _hb_vmRetValue             004165c0 f   xhb:hvm.obj
 0001:00014890       _hb_vmLocalName            00415890 f   xhb:hvm.obj
 0001:000148d0       _hb_vmStaticName           004158d0 f   xhb:hvm.obj
 0001:00014910       _hb_vmModuleName           00415910 f   xhb:hvm.obj
 0001:00016a50       _hb_vmPopLogical           00417a50 f   xhb:hvm.obj
 0001:00015dd0       _hb_vmPushIntegerConst     00416dd0 f   xhb:hvm.obj
 0001:00015f10       _hb_vmPushLongLongConst    00416f10 f   xhb:hvm.obj
 0001:00016000       _hb_vmPushDoubleConst      00417000 f   xhb:hvm.obj
 0001:00005280       _hb_vmUnhideString         00406280 f   xhb:hvm.obj
 0001:00016240       _hb_vmPushBlock            00417240 f   xhb:hvm.obj
 0001:00016370       _hb_vmPushBlockShort       00417370 f   xhb:hvm.obj
 0001:00016550       _hb_vmPushAlias            00417550 f   xhb:hvm.obj
 0001:000165a0       _hb_vmPushAliasedField     004175a0 f   xhb:hvm.obj
 0001:000165e0       _hb_vmPushAliasedVar       004175e0 f   xhb:hvm.obj
 0001:00016690       _hb_vmPushLocal            00417690 f   xhb:hvm.obj
 0001:0000a0a0       _hb_vmAddInt               0040b0a0 f   xhb:hvm.obj
 0001:00016710       _hb_vmPushLocalByRef       00417710 f   xhb:hvm.obj
 0001:00016790       _hb_vmPushStatic           00417790 f   xhb:hvm.obj
 0001:00016800       _hb_vmPushStaticByRef      00417800 f   xhb:hvm.obj
 0001:00016860       _hb_vmPushVariable         00417860 f   xhb:hvm.obj
 0001:00016900       _hb_vmDuplicate            00417900 f   xhb:hvm.obj
 0001:00016940       _hb_vmDuplTwo              00417940 f   xhb:hvm.obj
 0001:00016d30       _hb_vmPopAlias             00417d30 f   xhb:hvm.obj
 0001:00016d80       _hb_vmPopAliasedField      00417d80 f   xhb:hvm.obj
 0001:00016e50       _hb_vmPopAliasedVar        00417e50 f   xhb:hvm.obj
 0001:00017080       _hb_vmPopLocal             00418080 f   xhb:hvm.obj
 0001:00017240       _hb_vmPopStatic            00418240 f   xhb:hvm.obj
 0001:00016460       _hb_vmPushMacroBlock       00417460 f   xhb:hvm.obj
 0001:00015560       _hb_vmEndBlock             00416560 f   xhb:hvm.obj
 0001:00014e20       _hb_vmSetDivert            00415e20 f   xhb:hvm.obj
 0001:00015710       _hb_vmSumDate              00416710 f   xhb:hvm.obj
 0001:00015960       _hb_vmSubDate              00416960 f   xhb:hvm.obj
 0001:00016bf0       _hb_vmPopHBLong            00417bf0 f   xhb:hvm.obj
 0001:00016cc0       _hb_vmPopDouble            00417cc0 f   xhb:hvm.obj
 0001:00015630       _hb_vmTimeStampPut         00416630 f   xhb:hvm.obj
 0001:000156c0       _hb_vmTimeStampAdd         004166c0 f   xhb:hvm.obj
 0001:00016ae0       _hb_vmPopNumber            00417ae0 f   xhb:hvm.obj
 0001:00013280       _hb_vmArrayNew             00414280 f   xhb:hvm.obj
 0001:00013450       _hb_vmSelectWorkarea       00414450 f   xhb:hvm.obj
 0001:00014950       _hb_vmDebuggerEndProc      00415950 f   xhb:hvm.obj
 0001:00014840       _hb_vmDummyDebugEntry      00415840 f   xhb:hvm.obj
 0001:00014c10       _hb_vmDivertFrame          00415c10 f   xhb:hvm.obj
 0001:00015e80       _hb_vmPushHBLong           00416e80 f   xhb:hvm.obj
 0001:00015d00       _hb_vmCalcIntWidth         00416d00 f   xhb:hvm.obj
 0001:00017420       _hb_vmFindFreeModule       00418420 f   xhb:hvm.obj
 0001:00005470       _hb_vmSymbolOverloadDefinition 00406470 f   xhb:hvm.obj
 0001:000182d0       _hb_vmFindSymInModule      004192d0 f   xhb:hvm.obj
 0001:00019070       _hb_xvmActionRequest       0041a070 f   xhb:hvm.obj
 0001:0001b010       _hb_vmArrayItemPush        0041c010 f   xhb:hvm.obj
 0001:0001b350       _hb_vmArrayItemPop         0041c350 f   xhb:hvm.obj
 0001:00018900       _hb_vmItemRefRead          00419900 f   xhb:hvm.obj
 0001:00018910       _hb_vmItemRefWrite         00419910 f   xhb:hvm.obj
 0001:00018920       _hb_vmItemRefCopy          00419920 f   xhb:hvm.obj
 0001:00018940       _hb_vmItemRefDummy         00419940 f   xhb:hvm.obj
 0001:0001d730       _hb_clsFindMethod          0041e730 f   xhb:classes.obj
 0001:00021e30       _hb___msgSuper             00422e30 f   xhb:classes.obj
 0001:0001ca20       _hb_clsIsFriendSymbol      0041da20 f   xhb:classes.obj
 0001:0001cc00       _hb_clsClearClassDatas     0041dc00 f   xhb:classes.obj
 0001:0001cc30       _hb_clsClear               0041dc30 f   xhb:classes.obj
 0001:0001cb70       _hb_clsRelease             0041db70 f   xhb:classes.obj
 0001:0001c9d0       _hb_clsHasParent           0041d9d0 f   xhb:classes.obj
 0001:0001ce70       _hb_clsValidScope          0041de70 f   xhb:classes.obj
 0001:00022080       _hb___msgVirtual           00423080 f   xhb:classes.obj
 0001:00021960       _hb___msgClsName           00422960 f   xhb:classes.obj
 0001:00021800       _hb___msgClsH              00422800 f   xhb:classes.obj
 0001:00021bb0       _hb___msgClsSel            00422bb0 f   xhb:classes.obj
 0001:00021990       _hb___msgClsFullSel        00422990 f   xhb:classes.obj
 0001:00021830       _hb___msgClsParent         00422830 f   xhb:classes.obj
 0001:0001dd70       _hb_objGetMessage          0041ed70 f   xhb:classes.obj
 0001:0001d7c0       _hb_clsSaveMethod          0041e7c0 f   xhb:classes.obj
 0001:00021d60       _hb___msgEvalInline        00422d60 f   xhb:classes.obj
 0001:00022090       _hb___msgDelegate          00423090 f   xhb:classes.obj
 0001:0001ddd0       _hb_clsAddMsg              0041edd0 f   xhb:classes.obj
 0001:0001ef40       _hb_clsNew                 0041ff40 f   xhb:classes.obj
 0001:0001d810       _hb_clsDelMethod           0041e810 f   xhb:classes.obj
 0001:0001d8c0       _hb_clsMakeSuperObject     0041e8c0 f   xhb:classes.obj
 0001:0001ca90       _hb_clsAddFriendSymbol     0041da90 f   xhb:classes.obj
 0001:00022a20       ___clsAddFriend            00423a20 f   xhb:classes.obj
 0001:000230d0       _HB_FUN_NEW                004240d0 f   xhb:tclass.obj
 0001:000230f0       _HB_FUN_CREATE             004240f0 f   xhb:tclass.obj
 0001:00023150       _HB_FUN_ADDDATA            00424150 f   xhb:tclass.obj
 0001:00023170       _HB_FUN_ADDMULTIDATA       00424170 f   xhb:tclass.obj
 0001:00023190       _HB_FUN_ADDCLASSDATA       00424190 f   xhb:tclass.obj
 0001:000231b0       _HB_FUN_ADDMULTICLSDATA    004241b0 f   xhb:tclass.obj
 0001:000231d0       _HB_FUN_ADDINLINE          004241d0 f   xhb:tclass.obj
 0001:000231f0       _HB_FUN_ADDMETHOD          004241f0 f   xhb:tclass.obj
 0001:00023210       _HB_FUN_ADDCLSMETHOD       00424210 f   xhb:tclass.obj
 0001:00023230       _HB_FUN_ADDVIRTUAL         00424230 f   xhb:tclass.obj
 0001:00023250       _HB_FUN_ADDDELEGATE        00424250 f   xhb:tclass.obj
 0001:00023290       _HB_FUN_MODINLINE          00424290 f   xhb:tclass.obj
 0001:000232b0       _HB_FUN_MODMETHOD          004242b0 f   xhb:tclass.obj
 0001:000232d0       _HB_FUN_MODCLSMETHOD       004242d0 f   xhb:tclass.obj
 0001:00023130       _HB_FUN_INSTANCE           00424130 f   xhb:tclass.obj
 0001:000232f0       _HB_FUN_SETONERROR         004242f0 f   xhb:tclass.obj
 0001:00023310       _HB_FUN_SETDESTRUCTOR      00424310 f   xhb:tclass.obj
 0001:00023330       _HB_FUN_CONSTRUCTORCALL    00424330 f   xhb:tclass.obj
 0001:00023350       _HB_FUN_DIVERTCONSTRUCTORCALL 00424350 f   xhb:tclass.obj
 0001:00023110       _HB_FUN_REFRESH            00424110 f   xhb:tclass.obj
 0001:00023270       _HB_FUN_ADDFRIENDS         00424270 f   xhb:tclass.obj
 0001:00023370       _hb_INITSTATICS            00424370 f   xhb:tclass.obj
 0001:00023070       _hb_vm_SymbolInit_TCLASS   00424070 f   xhb:tclass.obj
 0001:00023680       _HB_FUN_TIPCLIENT_SETPROXY 00424680 f   xhb:client.obj
 0001:000236a0       _HB_FUN_TIPCLIENT_OPENPROXY 004246a0 f   xhb:client.obj
 0001:000236c0       _HB_FUN_TIPCLIENT_READHTTPPROXYRESPONSE 004246c0 f   xhb:client.obj
 0001:00023400       _HB_FUN_TIPCLIENT_NEW      00424400 f   xhb:client.obj
 0001:00023420       _HB_FUN_TIPCLIENT_OPEN     00424420 f   xhb:client.obj
 0001:000234a0       _HB_FUN_TIPCLIENT_READ     004244a0 f   xhb:client.obj
 0001:000234c0       _HB_FUN_TIPCLIENT_READTOFILE 004244c0 f   xhb:client.obj
 0001:00023500       _HB_FUN_TIPCLIENT_WRITE    00424500 f   xhb:client.obj
 0001:00023480       _HB_FUN_TIPCLIENT_COMMIT   00424480 f   xhb:client.obj
 0001:000234e0       _HB_FUN_TIPCLIENT_WRITEFROMFILE 004244e0 f   xhb:client.obj
 0001:00023460       _HB_FUN_TIPCLIENT_RESET    00424460 f   xhb:client.obj
 0001:00023440       _HB_FUN_TIPCLIENT_CLOSE    00424440 f   xhb:client.obj
 0001:00023620       _HB_FUN_TIPCLIENT_INETRCVBUFSIZE 00424620 f   xhb:client.obj
 0001:00023640       _HB_FUN_TIPCLIENT_INETSNDBUFSIZE 00424640 f   xhb:client.obj
 0001:00023560       _HB_FUN_TIPCLIENT_INETRECV 00424560 f   xhb:client.obj
 0001:00023580       _HB_FUN_TIPCLIENT_INETRECVLINE 00424580 f   xhb:client.obj
 0001:000235a0       _HB_FUN_TIPCLIENT_INETRECVALL 004245a0 f   xhb:client.obj
 0001:00023540       _HB_FUN_TIPCLIENT_INETCOUNT 00424540 f   xhb:client.obj
 0001:00023520       _HB_FUN_TIPCLIENT_INETSENDALL 00424520 f   xhb:client.obj
 0001:000235c0       _HB_FUN_TIPCLIENT_INETERRORCODE 004245c0 f   xhb:client.obj
 0001:000235e0       _HB_FUN_TIPCLIENT_INETERRORDESC 004245e0 f   xhb:client.obj
 0001:00023600       _HB_FUN_TIPCLIENT_INETCONNECT 00424600 f   xhb:client.obj
 0001:00023660       _HB_FUN_TIPCLIENT_LOG      00424660 f   xhb:client.obj
 0001:000236e0       _hb_INITSTATICS            004246e0 f   xhb:client.obj
 0001:00023390       _hb_vm_SymbolInit_CLIENT   00424390 f   xhb:client.obj
 0001:00023700       _hb_arrayNewRagged         00424700 f   xhb:arrayshb.obj
 0001:000295b0       _hb_vm_SymbolInit_CSTR     0042a5b0 f   xhb:cstr.obj
 0001:00029830       _HB_FUN_TIPENCODERURL_NEW  0042a830 f   xhb:encurl.obj
 0001:00029850       _hb_INITSTATICS            0042a850 f   xhb:encurl.obj
 0001:000297d0       _hb_vm_SymbolInit_ENCURL   0042a7d0 f   xhb:encurl.obj
 0001:00029d10       _hb_INITSTATICS            0042ad10 f   xhb:alert.obj
 0001:00029c90       _hb_vm_SymbolInit_ALERT    0042ac90 f   xhb:alert.obj
 0001:00029d90       _HB_FUN_TIPENCODERBASE64_NEW 0042ad90 f   xhb:encb64.obj
 0001:00029db0       _hb_INITSTATICS            0042adb0 f   xhb:encb64.obj
 0001:00029d30       _hb_vm_SymbolInit_ENCB64   0042ad30 f   xhb:encb64.obj
 0001:0002ca70       _hb_itemIsLess             0042da70 f   xhb:asort.obj
 0001:0002ce10       _hb_arraySortQuickPartition 0042de10 f   xhb:asort.obj
 0001:0002cee0       _hb_arraySortQuick         0042dee0 f   xhb:asort.obj
 0001:000301c0       _hb_gcLink                 004311c0 f   xhb:garbage.obj
 0001:00030210       _hb_gcUnlink               00431210 f   xhb:garbage.obj
 0001:000303e0       _hb_gcGripRelease          004313e0 f   xhb:garbage.obj
 0001:000324e0       _hb_langFindPos            004334e0 f   xhb:langapi.obj
 0001:000327d0       _hb_errGetNumCode          004337d0 f   xhb:errorapi.obj
 0001:000328d0       _HB_FUN_ARGS               004338d0 f   xhb:errorapi.obj
 0001:000328f0       _HB_FUN__ARGS              004338f0 f   xhb:errorapi.obj
 0001:00032930       _HB_FUN_CANDEFAULT         00433930 f   xhb:errorapi.obj
 0001:00032970       _HB_FUN__CANDEFAULT        00433970 f   xhb:errorapi.obj
 0001:00032a00       _HB_FUN_CANRETRY           00433a00 f   xhb:errorapi.obj
 0001:00032a40       _HB_FUN__CANRETRY          00433a40 f   xhb:errorapi.obj
 0001:00032ad0       _HB_FUN_CANSUBST           00433ad0 f   xhb:errorapi.obj
 0001:00032b10       _HB_FUN__CANSUBST          00433b10 f   xhb:errorapi.obj
 0001:00032870       _HB_FUN_CARGO              00433870 f   xhb:errorapi.obj
 0001:00032890       _HB_FUN__CARGO             00433890 f   xhb:errorapi.obj
 0001:00032ba0       _HB_FUN_DESCRIPTION        00433ba0 f   xhb:errorapi.obj
 0001:00032bd0       _HB_FUN__DESCRIPTION       00433bd0 f   xhb:errorapi.obj
 0001:00032c20       _HB_FUN_FILENAME           00433c20 f   xhb:errorapi.obj
 0001:00032c50       _HB_FUN__FILENAME          00433c50 f   xhb:errorapi.obj
 0001:00032da0       _HB_FUN_GENCODE            00433da0 f   xhb:errorapi.obj
 0001:00032dd0       _HB_FUN__GENCODE           00433dd0 f   xhb:errorapi.obj
 0001:00032ca0       _HB_FUN_OPERATION          00433ca0 f   xhb:errorapi.obj
 0001:00032cd0       _HB_FUN__OPERATION         00433cd0 f   xhb:errorapi.obj
 0001:00032e40       _HB_FUN_OSCODE             00433e40 f   xhb:errorapi.obj
 0001:00032e70       _HB_FUN__OSCODE            00433e70 f   xhb:errorapi.obj
 0001:00032f40       _HB_FUN_SEVERITY           00433f40 f   xhb:errorapi.obj
 0001:00032f70       _HB_FUN__SEVERITY          00433f70 f   xhb:errorapi.obj
 0001:00032ec0       _HB_FUN_SUBCODE            00433ec0 f   xhb:errorapi.obj
 0001:00032ef0       _HB_FUN__SUBCODE           00433ef0 f   xhb:errorapi.obj
 0001:00032d20       _HB_FUN_SUBSYSTEM          00433d20 f   xhb:errorapi.obj
 0001:00032d50       _HB_FUN__SUBSYSTEM         00433d50 f   xhb:errorapi.obj
 0001:00032fc0       _HB_FUN_TRIES              00433fc0 f   xhb:errorapi.obj
 0001:00032ff0       _HB_FUN__TRIES             00433ff0 f   xhb:errorapi.obj
 0001:00033040       _HB_FUN__PROCNAME          00434040 f   xhb:errorapi.obj
 0001:00033090       _HB_FUN__PROCLINE          00434090 f   xhb:errorapi.obj
 0001:000330e0       _HB_FUN__RUNNINGTHREADS    004340e0 f   xhb:errorapi.obj
 0001:00033130       _HB_FUN__OSTHREADID        00434130 f   xhb:errorapi.obj
 0001:00033180       _HB_FUN__VMTHREADID        00434180 f   xhb:errorapi.obj
 0001:000331d0       _HB_FUN__MODULENAME        004341d0 f   xhb:errorapi.obj
 0001:00033220       _HB_FUN__AASTACK           00434220 f   xhb:errorapi.obj
 0001:00033260       _hb_errClassCreate         00434260 f   xhb:errorapi.obj
 0001:0003acc0       _hb_cmdargGet              0043bcc0 f   xhb:cmdarg.obj
 0001:0003b330       _hb_vm_SymbolInit_CMDARG   0043c330 f   xhb:cmdarg.obj
 0001:0003b370       _DosToWinHandle            0043c370 f   xhb:filesys.obj
 0001:0003b3b0       _convert_open_flags        0043c3b0 f   xhb:filesys.obj
 0001:0003b530       _convert_seek_flags        0043c530 f   xhb:filesys.obj
 0001:0003d6d0       _hb_fsDisableWaitLocks     0043e6d0 f   xhb:filesys.obj
 0001:0003ea70       _sk_findkey                0043fa70 f   xhb:setkey.obj
 0001:0003eab0       _sk_add                    0043fab0 f   xhb:setkey.obj
 0001:0003f580       _open_handle               00440580 f   xhb:set.obj
 0001:0003f470       _close_binary              00440470 f   xhb:set.obj
 0001:0003f270       _set_logical               00440270 f   xhb:set.obj
 0001:0003f420       _set_string                00440420 f   xhb:set.obj
 0001:0003f530       _close_text                00440530 f   xhb:set.obj
 0001:0003f3e0       _set_number                004403e0 f   xhb:set.obj
 0001:0003f9e0       _hb_set_SetDefaultPrinter  004409e0 f   xhb:set.obj
 0001:0003f230       _set_char                  00440230 f   xhb:set.obj
 0001:0003f8c0       _hb_set_OSCODEPAGE         004408c0 f   xhb:set.obj
 0001:00042bc0       _hb_setSetFile             00443bc0 f   xhb:set.obj
 0001:00044970       _hb_WinToDosError          00445970 f   xhb:fserror.obj
 0001:00044fc0       _hb_numPow10               00445fc0 f   xhb:hbstr.obj
 0001:000451f0       _hb_str2number             004461f0 f   xhb:hbstr.obj
 0001:00046e80       _hb_memvarRecycle          00447e80 f   xhb:memvars.obj
 0001:00047470       _hb_memvarCreateFromDynSymbol 00448470 f   xhb:memvars.obj
 0001:00047a00       _hb_memvarFindSymbol       00448a00 f   xhb:memvars.obj
 0001:00046d60       _hb_memvarAddPrivate       00447d60 f   xhb:memvars.obj
 0001:00047730       _hb_memvarScopeGet         00448730 f   xhb:memvars.obj
 0001:00047840       _hb_memvarReleasePublicWorker 00448840 f   xhb:memvars.obj
 0001:00047820       _hb_memvarCountPublics     00448820 f   xhb:memvars.obj
 0001:00047910       _hb_memvarFindPublicByPos  00448910 f   xhb:memvars.obj
 0001:00047580       _hb_memvarRelease          00448580 f   xhb:memvars.obj
 0001:00047630       _hb_memvarReleaseWithMask  00448630 f   xhb:memvars.obj
 0001:000477c0       _hb_memvarClear            004487c0 f   xhb:memvars.obj
 0001:00047d10       _hb_memvarClearAll         00448d10 f   xhb:memvars.obj
 0001:000478d0       _hb_memvarCount            004488d0 f   xhb:memvars.obj
 0001:00047950       _hb_memvarDebugVariable    00448950 f   xhb:memvars.obj
 0001:000480d0       _hb_memvarSave             004490d0 f   xhb:memvars.obj
 0001:00048f50       _hb_GetSymbolInfo          00449f50 f   xhb:memvars.obj
 0001:0004a360       _hb_fileFind               0044b360 f   xhb:filebuf.obj
 0001:0004ae50       _s_fileMethods             0044be50 f   xhb:filebuf.obj
 0001:0004a450       _hb_fileFindOffset         0044b450 f   xhb:filebuf.obj
 0001:0004a5a0       _hb_fileDeleteLock         0044b5a0 f   xhb:filebuf.obj
 0001:0004a4d0       _hb_fileInsertLock         0044b4d0 f   xhb:filebuf.obj
 0001:0004a3b0       _hb_fileNew                0044b3b0 f   xhb:filebuf.obj
 0001:0004a7f0       _hb_fileUnlock             0044b7f0 f   xhb:filebuf.obj
 0001:0004a620       _hb_fileSetLock            0044b620 f   xhb:filebuf.obj
 0001:0004a9d0       _s_fileExtOpen             0044b9d0 f   xhb:filebuf.obj
 0001:0004a9a0       _s_fileAccept              0044b9a0 f   xhb:filebuf.obj
 0001:0004ae40       _s_fileDelete              0044be40 f   xhb:filebuf.obj
 0001:0004ab00       _s_fileClose               0044bb00 f   xhb:filebuf.obj
 0001:0004abc0       _s_fileLock                0044bbc0 f   xhb:filebuf.obj
 0001:0004ace0       _s_fileReadAt              0044bce0 f   xhb:filebuf.obj
 0001:0004ad10       _s_fileWriteAt             0044bd10 f   xhb:filebuf.obj
 0001:0004ad40       _s_fileTruncAt             0044bd40 f   xhb:filebuf.obj
 0001:0004ad60       _s_fileSize                0044bd60 f   xhb:filebuf.obj
 0001:0004ad90       _s_fileSeekLarge           0044bd90 f   xhb:filebuf.obj
 0001:0004adb0       _s_fileWriteLarge          0044bdb0 f   xhb:filebuf.obj
 0001:0004add0       _s_fileReadLarge           0044bdd0 f   xhb:filebuf.obj
 0001:0004adf0       _s_fileFlush               0044bdf0 f   xhb:filebuf.obj
 0001:0004ae00       _s_fileCommit              0044be00 f   xhb:filebuf.obj
 0001:0004ae20       _s_fileHandle              0044be20 f   xhb:filebuf.obj
 0001:0004c1f0       _s_translateSignal         0044d1f0 f   xhb:hbserv.obj
 0001:0004bee0       _s_signalHandler           0044cee0 f   xhb:hbserv.obj
 0001:0004c0a0       _s_exceptionFilter@4       0044d0a0 f   xhb:hbserv.obj
 0001:0004c0c0       _s_MsgFilterFunc@12        0044d0c0 f   xhb:hbserv.obj
 0001:0004c160       _s_serviceSetHBSig         0044d160 f   xhb:hbserv.obj
 0001:0004c250       _s_signalHandlersInit      0044d250 f   xhb:hbserv.obj
 0001:0004c1b0       _s_serviceSetDflSig        0044d1b0 f   xhb:hbserv.obj
 0001:0004c7b0       _utf8tou16nextchar         0044d7b0 f   xhb:cdpapi.obj
 0001:0004c940       _hb_cdpFindPos             0044d940 f   xhb:cdpapi.obj
 0001:0004c990       _hb_cdpcharsetFindPos      0044d990 f   xhb:cdpapi.obj
 0001:0004c6d0       _utf8Size                  0044d6d0 f   xhb:cdpapi.obj
 0001:0004c700       _u16toutf8                 0044d700 f   xhb:cdpapi.obj
 0001:0004e140       _hb_cdpMultiWeight         0044f140 f   xhb:cdpapi.obj
 0001:0004e590       _hb_cdpMultiWeightI        0044f590 f   xhb:cdpapi.obj
 0001:0004c8d0       _utf8pos                   0044d8d0 f   xhb:cdpapi.obj
 0001:0004fc50       _hb_macroErrorEvaluation   00450c50 f   xhb:macro.obj
 0001:0004fba0       _hb_macroCheckParam        00450ba0 f   xhb:macro.obj
 0001:0004faa0       _hb_macroParse             00450aa0 f   xhb:macro.obj
 0001:0004fd40       _hb_macroSyntaxError       00450d40 f   xhb:macro.obj
 0001:0004fcf0       _hb_macroEvaluate          00450cf0 f   xhb:macro.obj
 0001:000504c0       _hb_macroUseAliased        004514c0 f   xhb:macro.obj
 0001:0004fc90       _hb_macroErrorType         00450c90 f   xhb:macro.obj
 0001:000522e0       _get_decimal               004532e0 f   xhb:hbprintf.obj
 0001:000520a0       _va_arg_fill               004530a0 f   xhb:hbprintf.obj
 0001:00051f80       _va_arg_get                00452f80 f   xhb:hbprintf.obj
 0001:00052ba0       _put_str                   00453ba0 f   xhb:hbprintf.obj
 0001:00052650       _put_dbl                   00453650 f   xhb:hbprintf.obj
 0001:00052490       _put_dec                   00453490 f   xhb:hbprintf.obj
 0001:00052330       _put_octal                 00453330 f   xhb:hbprintf.obj
 0001:00052980       _put_hex                   00453980 f   xhb:hbprintf.obj
 0001:00056220       _HB_FUN__EXISTHELP         00457220 f   xhb:harbinit.obj
 0001:000560e0       _hb_vm_SymbolInit_HARBINIT 004570e0 f   xhb:harbinit.obj
 0001:00057000       _HB_FUN_HBOBJECT_COPY      00458000 f   xhb:tobject.obj
 0001:00057020       _HB_FUN_HBOBJECT_DEEPCOPY  00458020 f   xhb:tobject.obj
 0001:00057040       _HB_FUN_HBOBJECT_ISKINDOF  00458040 f   xhb:tobject.obj
 0001:00057060       _HB_FUN_HBOBJECT_ERROR     00458060 f   xhb:tobject.obj
 0001:00057160       _HB_FUN_HBOBJECT_ERRORHANDLER 00458160 f   xhb:tobject.obj
 0001:00057080       _HB_FUN_HBOBJECT_MSGNOTFOUND 00458080 f   xhb:tobject.obj
 0001:000570e0       _HB_FUN_HASHENTRY_GETVALUE 004580e0 f   xhb:tobject.obj
 0001:00057100       _HB_FUN_HASHENTRY_SETVALUE 00458100 f   xhb:tobject.obj
 0001:00057140       _hb_INITSTATICS            00458140 f   xhb:tobject.obj
 0001:00056fa0       _hb_vm_SymbolInit_TOBJECT  00457fa0 f   xhb:tobject.obj
 0001:00057290       _hb_vm_SymbolInit_OBJFUNC  00458290 f   xhb:objfunc.obj
 0001:00057570       _s_invalid_params          00458570 f   xhb:hbbitf.obj
 0001:00057e70       _hb_socketSetNonBlocking   00458e70 f   xhb:inet.obj
 0001:00057ea0       _hb_socketSetBlocking      00458ea0 f   xhb:inet.obj
 0001:00058050       _hb_inetSocketFinalize     00459050 f   xhb:inet.obj
 0001:00057a20       _hb_selectReadSocket       00458a20 f   xhb:inet.obj
 0001:00058b00       _s_inetRecvInternal        00459b00 f   xhb:inet.obj
 0001:00058d90       _s_inetRecvPattern         00459d90 f   xhb:inet.obj
 0001:00057b30       _hb_selectWriteSocket      00458b30 f   xhb:inet.obj
 0001:000597f0       _s_inetSendInternal        0045a7f0 f   xhb:inet.obj
 0001:00057dd0       _hb_getHosts               00458dd0 f   xhb:inet.obj
 0001:00057ed0       _hb_socketConnect          00458ed0 f   xhb:inet.obj
 0001:0005aad0       _HB_FUN_TURL_NEW           0045bad0 f   xhb:url.obj
 0001:0005aaf0       _HB_FUN_TURL_SETADDRESS    0045baf0 f   xhb:url.obj
 0001:0005ab10       _HB_FUN_TURL_BUILDADDRESS  0045bb10 f   xhb:url.obj
 0001:0005ab30       _HB_FUN_TURL_BUILDQUERY    0045bb30 f   xhb:url.obj
 0001:0005ab50       _HB_FUN_TURL_ADDGETFORM    0045bb50 f   xhb:url.obj
 0001:0005ab70       _hb_INITSTATICS            0045bb70 f   xhb:url.obj
 0001:0005aa70       _hb_vm_SymbolInit_URL      0045ba70 f   xhb:url.obj
 0001:0005ab90       _hb_datectod               0045bb90 f   xhb:dateshb.obj
 0001:0005ae40       _hb_timectot               0045be40 f   xhb:dateshb.obj
 0001:0005bce0       _hb_vm_SymbolInit_SPRINTF  0045cce0 f   xhb:sprintf.obj
 0001:0005bd40       _base64enc                 0045cd40 f   xhb:base64x.obj
 0001:0005c550       _HB_FUN_SCALAROBJECT_COPY  0045d550 f   xhb:tscalar.obj
 0001:0005c570       _HB_FUN_SCALAROBJECT_ASSTRING 0045d570 f   xhb:tscalar.obj
 0001:0005c590       _HB_FUN_SCALAROBJECT_ASEXPSTR 0045d590 f   xhb:tscalar.obj
 0001:0005c5f0       _HB_FUN_ARRAY_APPEND       0045d5f0 f   xhb:tscalar.obj
 0001:0005c5d0       _HB_FUN_ARRAY_ADDALL       0045d5d0 f   xhb:tscalar.obj
 0001:0005c610       _HB_FUN_ARRAY_COLLECT      0045d610 f   xhb:tscalar.obj
 0001:0005c630       _HB_FUN_ARRAY_DELETEAT     0045d630 f   xhb:tscalar.obj
 0001:0005c650       _HB_FUN_ARRAY_DO           0045d650 f   xhb:tscalar.obj
 0001:0005c670       _HB_FUN_ARRAY_INDEXOF      0045d670 f   xhb:tscalar.obj
 0001:0005c690       _HB_FUN_ARRAY_INSERTAT     0045d690 f   xhb:tscalar.obj
 0001:0005c6b0       _HB_FUN_ARRAY_REMOVE       0045d6b0 f   xhb:tscalar.obj
 0001:0005c6f0       _HB_FUN_HASH_ADDALL        0045d6f0 f   xhb:tscalar.obj
 0001:0005c710       _HB_FUN_HASH_COLLECT       0045d710 f   xhb:tscalar.obj
 0001:0005c730       _HB_FUN_HASH_DO            0045d730 f   xhb:tscalar.obj
 0001:0005c750       _HB_FUN_HASH__SIZE         0045d750 f   xhb:tscalar.obj
 0001:0005c890       _HB_FUN_POINTER_FUNCNAME   0045d890 f   xhb:tscalar.obj
 0001:0005c870       _hb_INITSTATICS            0045d870 f   xhb:tscalar.obj
 0001:0005c4f0       _hb_vm_SymbolInit_TSCALAR  0045d4f0 f   xhb:tscalar.obj
 0001:0005c930       _HB_FUN_TIPENCODER_NEW     0045d930 f   xhb:encoder.obj
 0001:0005c950       _HB_FUN_TIPENCODER_ENCODE  0045d950 f   xhb:encoder.obj
 0001:0005c970       _HB_FUN_TIPENCODER_DECODE  0045d970 f   xhb:encoder.obj
 0001:0005c990       _hb_INITSTATICS            0045d990 f   xhb:encoder.obj
 0001:0005c8b0       _hb_vm_SymbolInit_ENCODER  0045d8b0 f   xhb:encoder.obj
 0001:0005d320       _LocalPcreMalloc           0045e320 f   xhb:pcre_globals.obj
 0001:0005d330       _LocalPcreFree             0045e330 f   xhb:pcre_globals.obj
 0001:0005d380       __hb_lang_Init_            0045e380 f   xhb:msgen.obj
 0001:0005da10       _hb_conOutErr_             0045ea10 f   xhb:hbver.obj
 0001:0005e860       _hb_fsFindFill             0045f860 f   xhb:hbffind.obj
 0001:0005f500       _hb_gt_def_Init            00460500 f   xhb:hbgtcore.obj
 0001:0005f570       _hb_gt_def_Exit            00460570 f   xhb:hbgtcore.obj
 0001:0005f370       _hb_gt_def_New             00460370 f   xhb:hbgtcore.obj
 0001:0005f480       _hb_gt_def_Free            00460480 f   xhb:hbgtcore.obj
 0001:00062650       _hb_gt_def_Resize          00463650 f   xhb:hbgtcore.obj
 0001:00062630       _hb_gt_def_SetMode         00463630 f   xhb:hbgtcore.obj
 0001:00062870       _hb_gt_def_GetSize         00463870 f   xhb:hbgtcore.obj
 0001:00062890       _hb_gt_def_SemiCold        00463890 f   xhb:hbgtcore.obj
 0001:000628c0       _hb_gt_def_ColdArea        004638c0 f   xhb:hbgtcore.obj
 0001:00062980       _hb_gt_def_ExposeArea      00463980 f   xhb:hbgtcore.obj
 0001:00060b80       _hb_gt_def_ScrollArea      00461b80 f   xhb:hbgtcore.obj
 0001:00062a10       _hb_gt_def_TouchCell       00463a10 f   xhb:hbgtcore.obj
 0001:00062a60       _hb_gt_def_Redraw          00463a60 f   xhb:hbgtcore.obj
 0001:00062a70       _hb_gt_def_Refresh         00463a70 f   xhb:hbgtcore.obj
 0001:00062b90       _hb_gt_def_Flush           00463b90 f   xhb:hbgtcore.obj
 0001:0005f650       _hb_gt_def_MaxCol          00460650 f   xhb:hbgtcore.obj
 0001:0005f660       _hb_gt_def_MaxRow          00460660 f   xhb:hbgtcore.obj
 0001:0005f5b0       _hb_gt_def_CheckPos        004605b0 f   xhb:hbgtcore.obj
 0001:0005f630       _hb_gt_def_SetPos          00460630 f   xhb:hbgtcore.obj
 0001:0005f610       _hb_gt_def_GetPos          00460610 f   xhb:hbgtcore.obj
 0001:0005f670       _hb_gt_def_IsColor         00460670 f   xhb:hbgtcore.obj
 0001:0005f680       _hb_gt_def_GetColorStr     00460680 f   xhb:hbgtcore.obj
 0001:0005f6a0       _hb_gt_def_SetColorStr     004606a0 f   xhb:hbgtcore.obj
 0001:0005f6d0       _hb_gt_def_ColorSelect     004606d0 f   xhb:hbgtcore.obj
 0001:0005f6f0       _hb_gt_def_GetColor        004606f0 f   xhb:hbgtcore.obj
 0001:0005fac0       _hb_gt_def_ColorNum        00460ac0 f   xhb:hbgtcore.obj
 0001:0005fbe0       _hb_gt_def_ColorsToString  00460be0 f   xhb:hbgtcore.obj
 0001:0005fae0       _hb_gt_def_StringToColors  00460ae0 f   xhb:hbgtcore.obj
 0001:0005f720       _hb_gt_def_GetColorData    00460720 f   xhb:hbgtcore.obj
 0001:0005f7b0       _hb_gt_def_GetClearColor   004607b0 f   xhb:hbgtcore.obj
 0001:0005f7c0       _hb_gt_def_SetClearColor   004607c0 f   xhb:hbgtcore.obj
 0001:0005f7d0       _hb_gt_def_GetClearChar    004607d0 f   xhb:hbgtcore.obj
 0001:0005f7e0       _hb_gt_def_SetClearChar    004607e0 f   xhb:hbgtcore.obj
 0001:0005fd10       _hb_gt_def_GetCursorStyle  00460d10 f   xhb:hbgtcore.obj
 0001:0005fd20       _hb_gt_def_SetCursorStyle  00460d20 f   xhb:hbgtcore.obj
 0001:0005fd50       _hb_gt_def_GetScrCursor    00460d50 f   xhb:hbgtcore.obj
 0001:00060120       _hb_gt_def_GetChar         00461120 f   xhb:hbgtcore.obj
 0001:00060190       _hb_gt_def_PutChar         00461190 f   xhb:hbgtcore.obj
 0001:0005fe00       _hb_gt_def_DispBegin       00460e00 f   xhb:hbgtcore.obj
 0001:0005fe20       _hb_gt_def_DispEnd         00460e20 f   xhb:hbgtcore.obj
 0001:0005fe40       _hb_gt_def_DispCount       00460e40 f   xhb:hbgtcore.obj
 0001:000606a0       _hb_gt_def_RectSize        004616a0 f   xhb:hbgtcore.obj
 0001:000606f0       _hb_gt_def_Save            004616f0 f   xhb:hbgtcore.obj
 0001:000607c0       _hb_gt_def_Rest            004617c0 f   xhb:hbgtcore.obj
 0001:00060210       _hb_gt_def_PutText         00461210 f   xhb:hbgtcore.obj
 0001:00060260       _hb_gt_def_Replicate       00461260 f   xhb:hbgtcore.obj
 0001:000602d0       _hb_gt_def_WriteAt         004612d0 f   xhb:hbgtcore.obj
 0001:00060340       _hb_gt_def_Write           00461340 f   xhb:hbgtcore.obj
 0001:00060380       _hb_gt_def_WriteCon        00461380 f   xhb:hbgtcore.obj
 0001:00060870       _hb_gt_def_SetAttribute    00461870 f   xhb:hbgtcore.obj
 0001:000608e0       _hb_gt_def_DrawShadow      004618e0 f   xhb:hbgtcore.obj
 0001:000609c0       _hb_gt_def_Scroll          004619c0 f   xhb:hbgtcore.obj
 0001:00060db0       _hb_gt_def_ScrollUp        00461db0 f   xhb:hbgtcore.obj
 0001:00060ec0       _hb_gt_def_Box             00461ec0 f   xhb:hbgtcore.obj
 0001:000612b0       _hb_gt_def_BoxD            004622b0 f   xhb:hbgtcore.obj
 0001:00061270       _hb_gt_def_BoxS            00462270 f   xhb:hbgtcore.obj
 0001:000612f0       _hb_gt_def_HorizLine       004622f0 f   xhb:hbgtcore.obj
 0001:00061350       _hb_gt_def_VertLine        00462350 f   xhb:hbgtcore.obj
 0001:0005fdd0       _hb_gt_def_GetBlink        00460dd0 f   xhb:hbgtcore.obj
 0001:0005fde0       _hb_gt_def_SetBlink        00460de0 f   xhb:hbgtcore.obj
 0001:0005fdf0       _hb_gt_def_SetSnowFlag     00460df0 f   xhb:hbgtcore.obj
 0001:00060100       _hb_gt_def_Version         00461100 f   xhb:hbgtcore.obj
 0001:0005feb0       _hb_gt_def_Suspend         00460eb0 f   xhb:hbgtcore.obj
 0001:0005fed0       _hb_gt_def_Resume          00460ed0 f   xhb:hbgtcore.obj
 0001:0005fe50       _hb_gt_def_PreExt          00460e50 f   xhb:hbgtcore.obj
 0001:0005fe80       _hb_gt_def_PostExt         00460e80 f   xhb:hbgtcore.obj
 0001:0005fef0       _hb_gt_def_OutStd          00460ef0 f   xhb:hbgtcore.obj
 0001:0005ffd0       _hb_gt_def_OutErr          00460fd0 f   xhb:hbgtcore.obj
 0001:000600b0       _hb_gt_def_Tone            004610b0 f   xhb:hbgtcore.obj
 0001:000600d0       _hb_gt_def_Bell            004610d0 f   xhb:hbgtcore.obj
 0001:00061450       _hb_gt_def_Info            00462450 f   xhb:hbgtcore.obj
 0001:000619c0       _hb_gt_def_Alert           004629c0 f   xhb:hbgtcore.obj
 0001:00062590       _hb_gt_def_SetFlag         00463590 f   xhb:hbgtcore.obj
 0001:000613c0       _hb_gt_def_SetDispCP       004623c0 f   xhb:hbgtcore.obj
 0001:00061440       _hb_gt_def_SetKeyCP        00462440 f   xhb:hbgtcore.obj
 0001:00062bb0       _hb_gt_def_ReadKey         00463bb0 f   xhb:hbgtcore.obj
 0001:00062f20       _hb_gt_def_InkeyGet        00463f20 f   xhb:hbgtcore.obj
 0001:00062ce0       _hb_gt_def_InkeyPut        00463ce0 f   xhb:hbgtcore.obj
 0001:00062d50       _hb_gt_def_InkeyIns        00463d50 f   xhb:hbgtcore.obj
 0001:00063060       _hb_gt_def_InkeyLast       00464060 f   xhb:hbgtcore.obj
 0001:00062ee0       _hb_gt_def_InkeyNext       00463ee0 f   xhb:hbgtcore.obj
 0001:00062ec0       _hb_gt_def_InkeyPoll       00463ec0 f   xhb:hbgtcore.obj
 0001:00063140       _hb_gt_def_InkeySetText    00464140 f   xhb:hbgtcore.obj
 0001:00063090       _hb_gt_def_InkeySetLast    00464090 f   xhb:hbgtcore.obj
 0001:00063200       _hb_gt_def_InkeyReset      00464200 f   xhb:hbgtcore.obj
 0001:000632d0       _hb_gt_def_InkeyExit       004642d0 f   xhb:hbgtcore.obj
 0001:00063340       _hb_gt_def_MouseInit       00464340 f   xhb:hbgtcore.obj
 0001:00063350       _hb_gt_def_MouseExit       00464350 f   xhb:hbgtcore.obj
 0001:00063360       _hb_gt_def_MouseIsPresent  00464360 f   xhb:hbgtcore.obj
 0001:00063370       _hb_gt_def_MouseShow       00464370 f   xhb:hbgtcore.obj
 0001:00063380       _hb_gt_def_MouseHide       00464380 f   xhb:hbgtcore.obj
 0001:00063390       _hb_gt_def_MouseGetCursor  00464390 f   xhb:hbgtcore.obj
 0001:000633a0       _hb_gt_def_MouseSetCursor  004643a0 f   xhb:hbgtcore.obj
 0001:00063420       _hb_gt_def_MouseCol        00464420 f   xhb:hbgtcore.obj
 0001:000633f0       _hb_gt_def_MouseRow        004643f0 f   xhb:hbgtcore.obj
 0001:00063450       _hb_gt_def_MouseGetPos     00464450 f   xhb:hbgtcore.obj
 0001:00063470       _hb_gt_def_MouseSetPos     00464470 f   xhb:hbgtcore.obj
 0001:00063480       _hb_gt_def_MouseSetBounds  00464480 f   xhb:hbgtcore.obj
 0001:00063490       _hb_gt_def_MouseGetBounds  00464490 f   xhb:hbgtcore.obj
 0001:000634d0       _hb_gt_def_mouseStorageSize 004644d0 f   xhb:hbgtcore.obj
 0001:000634e0       _hb_gt_def_mouseSaveState  004644e0 f   xhb:hbgtcore.obj
 0001:00063560       _hb_gt_def_mouseRestoreState 00464560 f   xhb:hbgtcore.obj
 0001:000635c0       _hb_gt_def_mouseGetDoubleClickSpeed 004645c0 f   xhb:hbgtcore.obj
 0001:000635d0       _hb_gt_def_mouseSetDoubleClickSpeed 004645d0 f   xhb:hbgtcore.obj
 0001:000635f0       _hb_gt_def_MouseCountButton 004645f0 f   xhb:hbgtcore.obj
 0001:00063600       _hb_gt_def_MouseButtonState 00464600 f   xhb:hbgtcore.obj
 0001:00063610       _hb_gt_def_MouseButtonPressed 00464610 f   xhb:hbgtcore.obj
 0001:00063620       _hb_gt_def_MouseButtonReleased 00464620 f   xhb:hbgtcore.obj
 0001:00063630       _hb_gt_def_MouseReadKey    00464630 f   xhb:hbgtcore.obj
 0001:00063930       _hb_gt_def_GfxPrimitive    00464930 f   xhb:hbgtcore.obj
 0001:00063940       _hb_gt_def_GfxText         00464940 f   xhb:hbgtcore.obj
 0001:00063950       _hb_gt_def_WhoCares        00464950 f   xhb:hbgtcore.obj
 0001:0005f2b0       _hb_gt_def_BaseInit        004602b0 f   xhb:hbgtcore.obj
 0001:0005f7f0       _hb_gt_def_ColorDecode     004607f0 f   xhb:hbgtcore.obj
 0001:00062bd0       _hb_gt_def_InkeyFilter     00463bd0 f   xhb:hbgtcore.obj
 0001:00062c50       _hb_gt_def_InkeyPop        00463c50 f   xhb:hbgtcore.obj
 0001:00062e50       _hb_gt_def_InkeyPollDo     00463e50 f   xhb:hbgtcore.obj
 0001:00062dc0       _hb_gt_def_InkeyNextCheck  00463dc0 f   xhb:hbgtcore.obj
 0001:000630b0       _hb_gt_def_SetStrBuffer    004640b0 f   xhb:hbgtcore.obj
 0001:00063960       _hb_gt_FindEntry           00464960 f   xhb:hbgtcore.obj
 0001:000653b0       _hb_fsTempName             004663b0 f   xhb:fstemp.obj
 0001:00065200       _hb_fsCreateTempLow        00466200 f   xhb:fstemp.obj
 0001:00065f70       _hb_matherrblock           00466f70 f   xhb:math.obj
 0001:00066730       _hb_inKeyBlockFree         00467730 f   xhb:inkey.obj
 0001:00066770       _hb_inKeySetDestructor     00467770 f   xhb:inkey.obj
 0001:00069650       _yydestruct                0046a650 f   xhb:macroy.obj
 0001:0006bf60       _HB_FUN_DEFERROR           0046cf60 f   xhb:errorsys.obj
 0001:0006bf80       _HB_FUN_ERRORMESSAGE       0046cf80 f   xhb:errorsys.obj
 0001:0006c000       _HB_FUN_ARGUMENTS          0046d000 f   xhb:errorsys.obj
 0001:0006bfa0       _HB_FUN_LOGERROR           0046cfa0 f   xhb:errorsys.obj
 0001:0006bfe0       _HB_FUN_FWRITELINE         0046cfe0 f   xhb:errorsys.obj
 0001:0006bfc0       _HB_FUN_STRVALUE           0046cfc0 f   xhb:errorsys.obj
 0001:0006bf00       _hb_vm_SymbolInit_ERRORSYS 0046cf00 f   xhb:errorsys.obj
 0001:0006c290       _HB_FUN_CWITHPATH          0046d290 f   xhb:traceprg.obj
 0001:0006c230       _hb_vm_SymbolInit_TRACEPRG 0046d230 f   xhb:traceprg.obj
 0001:0006c3d0       _hb_TimeStrToSec           0046d3d0 f   xhb:samples.obj
 0001:0006c2b0       _hb_SecToTimeStr           0046d2b0 f   xhb:samples.obj
 0001:0006c6b0       _HB_FUN_TIPENCODERQP_NEW   0046d6b0 f   xhb:encqp.obj
 0001:0006c6d0       _hb_INITSTATICS            0046d6d0 f   xhb:encqp.obj
 0001:0006c650       _hb_vm_SymbolInit_ENCQP    0046d650 f   xhb:encqp.obj
 0001:0006cb30       _is_counted_repeat         0046db30 f   xhb:pcre_compile.obj
 0001:0006d430       _find_parens_sub           0046e430 f   xhb:pcre_compile.obj
 0001:0006dac0       _find_fixedlength          0046eac0 f   xhb:pcre_compile.obj
 0001:0006d9f0       _first_significant_code    0046e9f0 f   xhb:pcre_compile.obj
 0001:0006e080       _could_be_empty_branch     0046f080 f   xhb:pcre_compile.obj
 0001:0006e520       _check_posix_syntax        0046f520 f   xhb:pcre_compile.obj
 0001:0006df50       _find_recurse              0046ef50 f   xhb:pcre_compile.obj
 0001:0006cbf0       _check_escape              0046dbf0 f   xhb:pcre_compile.obj
 0001:0006e740       _complete_callout          0046f740 f   xhb:pcre_compile.obj
 0001:0006e6e0       _auto_callout              0046f6e0 f   xhb:pcre_compile.obj
 0001:0006e5d0       _check_posix_name          0046f5d0 f   xhb:pcre_compile.obj
 0001:0006d350       _read_repeat_counts        0046e350 f   xhb:pcre_compile.obj
 0001:0006e780       _check_auto_possessive     0046f780 f   xhb:pcre_compile.obj
 0001:0006e620       _adjust_recurse            0046f620 f   xhb:pcre_compile.obj
 0001:0006ca80       _expand_workspace          0046da80 f   xhb:pcre_compile.obj
 0001:0006d990       _find_parens               0046e990 f   xhb:pcre_compile.obj
 0001:0006e4d0       _could_be_empty            0046f4d0 f   xhb:pcre_compile.obj
 0001:00074600       _compile_regex             00475600 f   xhb:pcre_compile.obj
 0001:0006f770       _compile_branch            00470770 f   xhb:pcre_compile.obj
 0001:00074a60       _is_anchored               00475a60 f   xhb:pcre_compile.obj
 0001:00074bd0       _is_startline              00475bd0 f   xhb:pcre_compile.obj
 0001:00074dc0       _find_firstassertedchar    00475dc0 f   xhb:pcre_compile.obj
 0001:0006ca40       _find_error_text           0046da40 f   xhb:pcre_compile.obj
 0001:00075ea0       _match                     00476ea0 f   xhb:pcre_exec.obj
 0001:00075dd0       _match_ref                 00476dd0 f   xhb:pcre_exec.obj
 0001:00083b70       _hb_comp_SLX_Str2Num       00484b70 f   xhb:macroslx.obj
 0001:00085180       _Reduce                    00486180 f   xhb:macroslx.obj
 0001:00083bc0       _hb_macro_SLX_CustomAction 00484bc0 f   xhb:macroslx.obj
 0001:00085ca0       _GenTrees                  00486ca0 f   xhb:macroslx.obj
 0001:000838c0       _hb_macro_SLX_ElementToken 004848c0 f   xhb:macroslx.obj
 0001:00085f00       _rulecmp                   00486f00 f   xhb:macroslx.obj
 0001:00086ec0       _hb_compExprCBVarNew       00487ec0 f   xhb:macroa.obj
 0001:000873f0       _hb_getScreenRange         004883f0 f   xhb:saverest.obj
 0001:00088070       _hb_vm_SymbolInit_HBVER    00489070 f   xhb:version.obj
 0001:00089cd0       _hb_compExprUseEmpty       0048acd0 f   xhb:macrob.obj
 0001:00089d20       _hb_compExprUseExtBlock    0048ad20 f   xhb:macrob.obj
 0001:00089d30       _hb_compExprUseNil         0048ad30 f   xhb:macrob.obj
 0001:00089d90       _hb_compExprUseNumeric     0048ad90 f   xhb:macrob.obj
 0001:00089e20       _hb_compExprUseDate        0048ae20 f   xhb:macrob.obj
 0001:00089e80       _hb_compExprUseString      0048ae80 f   xhb:macrob.obj
 0001:00089f00       _hb_compExprUseCodeblock   0048af00 f   xhb:macrob.obj
 0001:0008a040       _hb_compExprUseLogical     0048b040 f   xhb:macrob.obj
 0001:0008a0a0       _hb_compExprUseSelf        0048b0a0 f   xhb:macrob.obj
 0001:0008a0f0       _hb_compExprUseArray       0048b0f0 f   xhb:macrob.obj
 0001:0008a280       _hb_compExprUseVarRef      0048b280 f   xhb:macrob.obj
 0001:0008a2e0       _hb_compExprUseMemVarRef   0048b2e0 f   xhb:macrob.obj
 0001:0008a340       _hb_compExprUseFunRef      0048b340 f   xhb:macrob.obj
 0001:0008a3b0       _hb_compExprUseIIF         0048b3b0 f   xhb:macrob.obj
 0001:0008a500       _hb_compExprUseList        0048b500 f   xhb:macrob.obj
 0001:0008a6e0       _hb_compExprUseArgList     0048b6e0 f   xhb:macrob.obj
 0001:0008a780       _hb_compExprUseArrayAt     0048b780 f   xhb:macrob.obj
 0001:0008ad40       _hb_compExprUseMacro       0048bd40 f   xhb:macrob.obj
 0001:0008b010       _hb_compExprUseFunCall     0048c010 f   xhb:macrob.obj
 0001:0008c1d0       _hb_compExprUseAliasVar    0048d1d0 f   xhb:macrob.obj
 0001:0008c540       _hb_compExprUseAliasExpr   0048d540 f   xhb:macrob.obj
 0001:0008c8f0       _hb_compExprUseSend        0048d8f0 f   xhb:macrob.obj
 0001:0008cc20       _hb_compExprUseWithSend    0048dc20 f   xhb:macrob.obj
 0001:0008c6d0       _hb_compExprUseFunName     0048d6d0 f   xhb:macrob.obj
 0001:0008c690       _hb_compExprUseAlias       0048d690 f   xhb:macrob.obj
 0001:0008c730       _hb_compExprUseRTVariable  0048d730 f   xhb:macrob.obj
 0001:0008c820       _hb_compExprUseVariable    0048d820 f   xhb:macrob.obj
 0001:0008ce90       _hb_compExprUsePostInc     0048de90 f   xhb:macrob.obj
 0001:0008cf60       _hb_compExprUsePostDec     0048df60 f   xhb:macrob.obj
 0001:0008d030       _hb_compExprUseAssign      0048e030 f   xhb:macrob.obj
 0001:0008d320       _hb_compExprUsePlusEq      0048e320 f   xhb:macrob.obj
 0001:0008d420       _hb_compExprUseMinusEq     0048e420 f   xhb:macrob.obj
 0001:0008d520       _hb_compExprUseMultEq      0048e520 f   xhb:macrob.obj
 0001:0008d620       _hb_compExprUseDivEq       0048e620 f   xhb:macrob.obj
 0001:0008d720       _hb_compExprUseModEq       0048e720 f   xhb:macrob.obj
 0001:0008d820       _hb_compExprUseExpEq       0048e820 f   xhb:macrob.obj
 0001:0008d920       _hb_compExprUseOr          0048e920 f   xhb:macrob.obj
 0001:0008dbb0       _hb_compExprUseAnd         0048ebb0 f   xhb:macrob.obj
 0001:0008de40       _hb_compExprUseNot         0048ee40 f   xhb:macrob.obj
 0001:0008dfc0       _hb_compExprUseEqual       0048efc0 f   xhb:macrob.obj
 0001:0008e290       _hb_compExprUseEQ          0048f290 f   xhb:macrob.obj
 0001:0008e430       _hb_compExprUseLT          0048f430 f   xhb:macrob.obj
 0001:0008e5d0       _hb_compExprUseGT          0048f5d0 f   xhb:macrob.obj
 0001:0008e770       _hb_compExprUseLE          0048f770 f   xhb:macrob.obj
 0001:0008e910       _hb_compExprUseGE          0048f910 f   xhb:macrob.obj
 0001:0008eab0       _hb_compExprUseNE          0048fab0 f   xhb:macrob.obj
 0001:0008ec50       _hb_compExprUseIN          0048fc50 f   xhb:macrob.obj
 0001:0008edf0       _hb_compExprUseLike        0048fdf0 f   xhb:macrob.obj
 0001:0008ef80       _hb_compExprUseMatch       0048ff80 f   xhb:macrob.obj
 0001:0008f110       _hb_compExprUsePlus        00490110 f   xhb:macrob.obj
 0001:0008f2b0       _hb_compExprUseMinus       004902b0 f   xhb:macrob.obj
 0001:0008f450       _hb_compExprUseMult        00490450 f   xhb:macrob.obj
 0001:0008f5f0       _hb_compExprUseDiv         004905f0 f   xhb:macrob.obj
 0001:0008f790       _hb_compExprUseMod         00490790 f   xhb:macrob.obj
 0001:0008f930       _hb_compExprUsePower       00490930 f   xhb:macrob.obj
 0001:0008fa50       _hb_compExprUseBitAnd      00490a50 f   xhb:macrob.obj
 0001:0008fbb0       _hb_compExprUseBitOr       00490bb0 f   xhb:macrob.obj
 0001:0008fd10       _hb_compExprUseBitXOr      00490d10 f   xhb:macrob.obj
 0001:0008fe70       _hb_compExprUseBitShiftR   00490e70 f   xhb:macrob.obj
 0001:0008ffd0       _hb_compExprUseBitShiftL   00490fd0 f   xhb:macrob.obj
 0001:00090130       _hb_compExprUseNegate      00491130 f   xhb:macrob.obj
 0001:000902c0       _hb_compExprUsePreInc      004912c0 f   xhb:macrob.obj
 0001:000903a0       _hb_compExprUsePreDec      004913a0 f   xhb:macrob.obj
 0001:00090790       _hb_tokensplit             00491790 f   xhb:fparse.obj
 0001:00094089       _hb_waOrderCondition       00495089 f   DBF:workarea.obj
 0001:00092c90       _hb_waBof                  00493c90 f   DBF:workarea.obj
 0001:00092ca5       _hb_waEof                  00493ca5 f   DBF:workarea.obj
 0001:00092cba       _hb_waFound                00493cba f   DBF:workarea.obj
 0001:0009597f       _hb_waUnsupported          0049697f f   DBF:workarea.obj
 0001:00092ccf       _hb_waSkip                 00493ccf f   DBF:workarea.obj
 0001:00092dd5       _hb_waSkipFilter           00493dd5 f   DBF:workarea.obj
 0001:00092f9a       _hb_waAddField             00493f9a f   DBF:workarea.obj
 0001:0009312d       _hb_waCreateFields         0049412d f   DBF:workarea.obj
 0001:0009368e       _hb_waFieldCount           0049468e f   DBF:workarea.obj
 0001:000936ad       _hb_waFieldInfo            004946ad f   DBF:workarea.obj
 0001:000939be       _hb_waFieldName            004949be f   DBF:workarea.obj
 0001:00093a25       _hb_waSetFieldExtent       00494a25 f   DBF:workarea.obj
 0001:00093a7e       _hb_waAlias                00494a7e f   DBF:workarea.obj
 0001:00093ae2       _hb_waClose                00494ae2 f   DBF:workarea.obj
 0001:00094012       _hb_waOpen                 00495012 f   DBF:workarea.obj
 0001:00093b45       _hb_waInfo                 00494b45 f   DBF:workarea.obj
 0001:00093fd3       _hb_waNewArea              00494fd3 f   DBF:workarea.obj
 0001:000941e9       _hb_waRelease              004951e9 f   DBF:workarea.obj
 0001:0009425b       _hb_waStructSize           0049525b f   DBF:workarea.obj
 0001:0009426d       _hb_waSysName              0049526d f   DBF:workarea.obj
 0001:00094296       _hb_waEval                 00495296 f   DBF:workarea.obj
 0001:0009475d       _hb_waTrans                0049575d f   DBF:workarea.obj
 0001:0009499f       _hb_waTransRec             0049599f f   DBF:workarea.obj
 0001:00094b8c       _hb_waChildEnd             00495b8c f   DBF:workarea.obj
 0001:00094c12       _hb_waChildStart           00495c12 f   DBF:workarea.obj
 0001:00094c2e       _hb_waSyncChildren         00495c2e f   DBF:workarea.obj
 0001:00094c8c       _hb_waClearRel             00495c8c f   DBF:workarea.obj
 0001:00094d5a       _hb_waRelArea              00495d5a f   DBF:workarea.obj
 0001:00094dec       _hb_waRelEval              00495dec f   DBF:workarea.obj
 0001:00094f8d       _hb_waRelText              00495f8d f   DBF:workarea.obj
 0001:00094ffc       _hb_waSetRel               00495ffc f   DBF:workarea.obj
 0001:00093fab       _hb_waOrderInfo            00494fab f   DBF:workarea.obj
 0001:000950db       _hb_waClearFilter          004960db f   DBF:workarea.obj
 0001:00095149       _hb_waClearLocate          00496149 f   DBF:workarea.obj
 0001:0009526b       _hb_waFilterText           0049626b f   DBF:workarea.obj
 0001:00095297       _hb_waSetFilter            00496297 f   DBF:workarea.obj
 0001:00095322       _hb_waSetLocate            00496322 f   DBF:workarea.obj
 0001:000944da       _hb_waLocate               004954da f   DBF:workarea.obj
 0001:00095493       _hb_waCompile              00496493 f   DBF:workarea.obj
 0001:000954e4       _hb_waError                004964e4 f   DBF:workarea.obj
 0001:00095565       _hb_waEvalBlock            00496565 f   DBF:workarea.obj
 0001:000959da       _hb_waRddUnsupported       004969da f   DBF:workarea.obj
 0001:00095631       _hb_waRddInfo              00496631 f   DBF:workarea.obj
 0001:000973db       _hb_fldStructure           004983db f   DBF:wafunc.obj
 0001:000974fb       _hb_dbTransFieldPos        004984fb f   DBF:wafunc.obj
 0001:00098040       _hb_rddCloseParentRel      00499040 f   DBF:wafunc.obj
 0001:00098170       _hb_waNodeInsert           00499170 f   DBF:wacore.obj
 0001:000983e1       _hb_waNodeDelete           004993e1 f   DBF:wacore.obj
 0001:0009dca0       _hb_vm_SymbolInit_RDDORD   0049eca0 f   DBF:rddord.obj
 0001:0009dde0       _hb_vm_SymbolInit_RDDSYS   0049ede0 f   DBF:rddsys.obj
 0001:0009df54       _hb_dbfGetRowVer           0049ef54 f   DBF:dbf1.obj
 0001:0009e0a6       _hb_dbfGetNextValue        0049f0a6 f   DBF:dbf1.obj
 0001:0009ea7f       _hb_dbfCalcRecCount        0049fa7f f   DBF:dbf1.obj
 0001:0009de40       _hb_dbfErrorRT             0049ee40 f   DBF:dbf1.obj
 0001:0009ed67       _hb_dbfPasswordSet         0049fd67 f   DBF:dbf1.obj
 0001:0009eae4       _hb_dbfReadRecord          0049fae4 f   DBF:dbf1.obj
 0001:0009f1e7       _hb_dbfUnlockAllRecords    004a01e7 f   DBF:dbf1.obj
 0001:0009e1d9       _hb_dbfUpdatedbaselockValue 0049f1d9 f   DBF:dbf1.obj
 0001:0009e4b9       _hb_dbfSetBlankRecord      0049f4b9 f   DBF:dbf1.obj
 0001:0009e91a       _hb_dbfTriggerDo           0049f91a f   DBF:dbf1.obj
 0001:0009f720       _hb_dbfIsLocked            004a0720 f   DBF:dbf1.obj
 0001:0009f3bd       _hb_dbfLockRecord          004a03bd f   DBF:dbf1.obj
 0001:0009f289       _hb_dbfUnlockRecord        004a0289 f   DBF:dbf1.obj
 0001:0009e373       _hb_dbfUpdateStampFields   0049f373 f   DBF:dbf1.obj
 0001:0009eca3       _hb_dbfWriteRecord         0049fca3 f   DBF:dbf1.obj
 0001:0009f775       _hb_dbfGetLockArray        004a0775 f   DBF:dbf1.obj
 0001:0009eceb       _hb_dbfTableTransaction    0049fceb f   DBF:dbf1.obj
 0001:0009ef99       _hb_dbfTableCrypt          0049ff99 f   DBF:dbf1.obj
 0001:000a01cc       _hb_dbfLockData            004a11cc f   DBF:dbf1.obj
 0001:0009e9cf       _hb_dbfTriggerSet          0049f9cf f   DBF:dbf1.obj
 0001:0009e148       _hb_dbfSetNextValue        0049f148 f   DBF:dbf1.obj
 0001:000a7892       _hb_dbfRawLock             004a8892 f   DBF:dbf1.obj
 0001:0009f5fc       _hb_dbfLockFile            004a05fc f   DBF:dbf1.obj
 0001:0009f6d9       _hb_dbfUnlockFile          004a06d9 f   DBF:dbf1.obj
 0001:000a9fe0       _hb_dbfRddInit             004aafe0 f   DBF:dbf1.obj
 0001:000a041b       _hb_dbfBof                 004a141b f   DBF:dbf1.obj
 0001:000a0467       _hb_dbfEof                 004a1467 f   DBF:dbf1.obj
 0001:000a04b3       _hb_dbfFound               004a14b3 f   DBF:dbf1.obj
 0001:000a04ff       _hb_dbfGoBottom            004a14ff f   DBF:dbf1.obj
 0001:000a05a1       _hb_dbfGoTo                004a15a1 f   DBF:dbf1.obj
 0001:000a0743       _hb_dbfGoToId              004a1743 f   DBF:dbf1.obj
 0001:000a07b7       _hb_dbfGoTop               004a17b7 f   DBF:dbf1.obj
 0001:000a0805       _hb_dbfSkip                004a1805 f   DBF:dbf1.obj
 0001:000a091a       _hb_dbfSkipRaw             004a191a f   DBF:dbf1.obj
 0001:000a0a04       _hb_dbfAddField            004a1a04 f   DBF:dbf1.obj
 0001:000a0a9e       _hb_dbfAppend              004a1a9e f   DBF:dbf1.obj
 0001:000a0dba       _hb_dbfDeleteRec           004a1dba f   DBF:dbf1.obj
 0001:000a0ebe       _hb_dbfDeleted             004a1ebe f   DBF:dbf1.obj
 0001:000a0f39       _hb_dbfFlush               004a1f39 f   DBF:dbf1.obj
 0001:000a101c       _hb_dbfGetRec              004a201c f   DBF:dbf1.obj
 0001:000a112a       _hb_dbfGetValue            004a212a f   DBF:dbf1.obj
 0001:000a1a60       _hb_dbfGetVarLen           004a2a60 f   DBF:dbf1.obj
 0001:000a1a84       _hb_dbfGoCold              004a2a84 f   DBF:dbf1.obj
 0001:000a1b83       _hb_dbfGoHot               004a2b83 f   DBF:dbf1.obj
 0001:000a1c2a       _hb_dbfPutRec              004a2c2a f   DBF:dbf1.obj
 0001:000a1f2a       _hb_dbfPutValue            004a2f2a f   DBF:dbf1.obj
 0001:000a2ec2       _hb_dbfRecall              004a3ec2 f   DBF:dbf1.obj
 0001:000a2fc6       _hb_dbfRecCount            004a3fc6 f   DBF:dbf1.obj
 0001:000a51ca       _hb_dbfRecInfo             004a61ca f   DBF:dbf1.obj
 0001:000a300b       _hb_dbfRecNo               004a400b f   DBF:dbf1.obj
 0001:000a305a       _hb_dbfRecId               004a405a f   DBF:dbf1.obj
 0001:000a308f       _hb_dbfSetFieldExtent      004a408f f   DBF:dbf1.obj
 0001:000a3103       _hb_dbfClose               004a4103 f   DBF:dbf1.obj
 0001:000a33c2       _hb_dbfCreate              004a43c2 f   DBF:dbf1.obj
 0001:000a492b       _hb_dbfInfo                004a592b f   DBF:dbf1.obj
 0001:000a584b       _hb_dbfNewArea             004a684b f   DBF:dbf1.obj
 0001:000a5941       _hb_dbfOpen                004a6941 f   DBF:dbf1.obj
 0001:000a6a41       _hb_dbfStructSize          004a7a41 f   DBF:dbf1.obj
 0001:000a6a8d       _hb_dbfPack                004a7a8d f   DBF:dbf1.obj
 0001:000a6a53       _hb_dbfPackRec             004a7a53 f   DBF:dbf1.obj
 0001:000a6f56       _hb_dbfSort                004a7f56 f   DBF:dbf1.obj
 0001:000a73c4       _hb_dbfTrans               004a83c4 f   DBF:dbf1.obj
 0001:000a74ed       _hb_dbfZap                 004a84ed f   DBF:dbf1.obj
 0001:000a76d9       _hb_dbfChildEnd            004a86d9 f   DBF:dbf1.obj
 0001:000a772a       _hb_dbfChildStart          004a872a f   DBF:dbf1.obj
 0001:000a776c       _hb_dbfChildSync           004a876c f   DBF:dbf1.obj
 0001:000a77cd       _hb_dbfForceRel            004a87cd f   DBF:dbf1.obj
 0001:000a7822       _hb_dbfClearFilter         004a8822 f   DBF:dbf1.obj
 0001:000a7858       _hb_dbfSetFilter           004a8858 f   DBF:dbf1.obj
 0001:000a7d39       _hb_dbfLock                004a8d39 f   DBF:dbf1.obj
 0001:000a7e02       _hb_dbfUnLock              004a8e02 f   DBF:dbf1.obj
 0001:000a7eb5       _hb_dbfCreateMemFile       004a8eb5 f   DBF:dbf1.obj
 0001:000a7ef8       _hb_dbfGetValueFile        004a8ef8 f   DBF:dbf1.obj
 0001:000a8133       _hb_dbfOpenMemFile         004a9133 f   DBF:dbf1.obj
 0001:000a815d       _hb_dbfPutValueFile        004a915d f   DBF:dbf1.obj
 0001:000a83e1       _hb_dbfReadDBHeader        004a93e1 f   DBF:dbf1.obj
 0001:000a8797       _hb_dbfWriteDBHeader       004a9797 f   DBF:dbf1.obj
 0001:000a985c       _hb_dbfInit                004aa85c f   DBF:dbf1.obj
 0001:000a98b8       _hb_dbfExit                004aa8b8 f   DBF:dbf1.obj
 0001:000a8f4d       _hb_dbfDrop                004a9f4d f   DBF:dbf1.obj
 0001:000a9263       _hb_dbfExists              004aa263 f   DBF:dbf1.obj
 0001:000a93e3       _hb_dbfRename              004aa3e3 f   DBF:dbf1.obj
 0001:000a997c       _hb_dbfRddInfo             004aa97c f   DBF:dbf1.obj
 0001:000aa054       __hb_dbf_rdd_init_         004ab054 f   DBF:dbf1.obj
 0001:000aa010       _dbf1__InitSymbols         004ab010 f   DBF:dbf1.obj
 0001:000aa40f       _hb_fptHasDirectAccess     004ab40f f   DBF:dbffpt1.obj
 0001:000aa724       _hb_fptPackGCitems         004ab724 f   DBF:dbffpt1.obj
 0001:000aa917       _hb_fptWriteGCitems        004ab917 f   DBF:dbffpt1.obj
 0001:000aa5f3       _hb_fptSortGCitems         004ab5f3 f   DBF:dbffpt1.obj
 0001:000ab081       _hb_fptDestroyGCdata       004ac081 f   DBF:dbffpt1.obj
 0001:000aae3e       _hb_fptGCgetFreeBlock      004abe3e f   DBF:dbffpt1.obj
 0001:000abfee       _hb_fptCountSMTItemLength  004acfee f   DBF:dbffpt1.obj
 0001:000ac1df       _hb_fptCountSMTDataLength  004ad1df f   DBF:dbffpt1.obj
 0001:000ac3d5       _hb_fptStoreSMTItem        004ad3d5 f   DBF:dbffpt1.obj
 0001:000ac776       _hb_fptReadRawSMTItem      004ad776 f   DBF:dbffpt1.obj
 0001:000acbc8       _hb_fptReadSMTItem         004adbc8 f   DBF:dbffpt1.obj
 0001:000acf1d       _hb_fptCountSixItemLength  004adf1d f   DBF:dbffpt1.obj
 0001:000ad0c5       _hb_fptStoreSixItem        004ae0c5 f   DBF:dbffpt1.obj
 0001:000ad4e9       _hb_fptReadSixItem         004ae4e9 f   DBF:dbffpt1.obj
 0001:000ad7c0       _hb_fptCountFlexItemLength 004ae7c0 f   DBF:dbffpt1.obj
 0001:000ada1e       _hb_fptStoreFlexItem       004aea1e f   DBF:dbffpt1.obj
 0001:000adef3       _hb_fptReadFlexItem        004aeef3 f   DBF:dbffpt1.obj
 0001:000ae976       _hb_fptCopyToRawFile       004af976 f   DBF:dbffpt1.obj
 0001:000abb6c       _hb_fptGetMemoLen          004acb6c f   DBF:dbffpt1.obj
 0001:000ab069       _hb_fptInitGCdata          004ac069 f   DBF:dbffpt1.obj
 0001:000ab0be       _hb_fptReadGCdata          004ac0be f   DBF:dbffpt1.obj
 0001:000aaaa0       _hb_fptGCfreeBlock         004abaa0 f   DBF:dbffpt1.obj
 0001:000ab4da       _hb_fptWriteGCdata         004ac4da f   DBF:dbffpt1.obj
 0001:000af8b2       _hb_fptWriteMemo           004b08b2 f   DBF:dbffpt1.obj
 0001:000b0583       _hb_fptLockForRead         004b1583 f   DBF:dbffpt1.obj
 0001:000aecb7       _hb_fptReadRawBlock        004afcb7 f   DBF:dbffpt1.obj
 0001:000aef0d       _hb_fptReadSMTBlock        004aff0d f   DBF:dbffpt1.obj
 0001:000aed7c       _hb_fptReadBlobBlock       004afd7c f   DBF:dbffpt1.obj
 0001:000af02d       _hb_fptGetMemo             004b002d f   DBF:dbffpt1.obj
 0001:000aa3b0       _hb_fptFileUnLockSh        004ab3b0 f   DBF:dbffpt1.obj
 0001:000aa070       _hb_memoErrorRT            004ab070 f   DBF:dbffpt1.obj
 0001:000aa20e       _hb_fptFileLockEx          004ab20e f   DBF:dbffpt1.obj
 0001:000aa351       _hb_fptFileUnLockEx        004ab351 f   DBF:dbffpt1.obj
 0001:000afed1       _hb_fptPutMemo             004b0ed1 f   DBF:dbffpt1.obj
 0001:000b05ae       _hb_fptGetVarField         004b15ae f   DBF:dbffpt1.obj
 0001:000b0f06       _hb_fptPutVarField         004b1f06 f   DBF:dbffpt1.obj
 0001:000aa2ad       _hb_fptFileLockSh          004ab2ad f   DBF:dbffpt1.obj
 0001:000aeb0f       _hb_fptCopyToFile          004afb0f f   DBF:dbffpt1.obj
 0001:000b2e2f       _hb_fptDoPackRec           004b3e2f f   DBF:dbffpt1.obj
 0001:000aa1a2       _hb_memoDefaultFileExt     004ab1a2 f   DBF:dbffpt1.obj
 0001:000b3399       _hb_fptDoPack              004b4399 f   DBF:dbffpt1.obj
 0001:000b0bed       _hb_fptGetVarFile          004b1bed f   DBF:dbffpt1.obj
 0001:000b0d34       _hb_fptPutVarFile          004b1d34 f   DBF:dbffpt1.obj
 0001:000aa512       _hb_fptGetRootBlock        004ab512 f   DBF:dbffpt1.obj
 0001:000aa588       _hb_fptPutRootBlock        004ab588 f   DBF:dbffpt1.obj
 0001:000aa45b       _hb_fptRootBlockLock       004ab45b f   DBF:dbffpt1.obj
 0001:000aa4b3       _hb_fptRootBlockUnLock     004ab4b3 f   DBF:dbffpt1.obj
 0001:000abcfa       _hb_fptGetMemoType         004accfa f   DBF:dbffpt1.obj
 0001:000b4d48       _hb_dbffptRegisterRDD      004b5d48 f   DBF:dbffpt1.obj
 0001:000b4e10       _hb_dbffptRddInit          004b5e10 f   DBF:dbffpt1.obj
 0001:000b463c       _hb_fptFieldInfo           004b563c f   DBF:dbffpt1.obj
 0001:000b18cb       _hb_fptGetValue            004b28cb f   DBF:dbffpt1.obj
 0001:000b17e4       _hb_fptGetVarLen           004b27e4 f   DBF:dbffpt1.obj
 0001:000b195d       _hb_fptPutValue            004b295d f   DBF:dbffpt1.obj
 0001:000b3cfb       _hb_fptInfo                004b4cfb f   DBF:dbffpt1.obj
 0001:000b17d2       _hb_fptStructSize          004b27d2 f   DBF:dbffpt1.obj
 0001:000b39ad       _hb_fptPack                004b49ad f   DBF:dbffpt1.obj
 0001:000b38f6       _hb_fptPackRec             004b48f6 f   DBF:dbffpt1.obj
 0001:000b19ed       _hb_fptCreateMemFile       004b29ed f   DBF:dbffpt1.obj
 0001:000b21e6       _hb_fptGetValueFile        004b31e6 f   DBF:dbffpt1.obj
 0001:000b23d5       _hb_fptOpenMemFile         004b33d5 f   DBF:dbffpt1.obj
 0001:000b2945       _hb_fptPutValueFile        004b3945 f   DBF:dbffpt1.obj
 0001:000b48f4       _hb_fptRddInfo             004b58f4 f   DBF:dbffpt1.obj
 0001:000b4eb9       __hb_dbffpt_rdd_init_      004b5eb9 f   DBF:dbffpt1.obj
 0001:000b4e75       _dbffpt1__InitSymbols      004b5e75 f   DBF:dbffpt1.obj
 0001:000b4ed0       _hb_sxInitSeed             004b5ed0 f   DBF:sxcrypt.obj
 0001:000b4f3e       _hb_sxNextSeed             004b5f3e f   DBF:sxcrypt.obj
 0001:000b5162       __hb_sxGetKey              004b6162 f   DBF:sxcrypt.obj
 0001:000b5740       _hb_dbQSortIsLess          004b6740 f   DBF:hbdbsort.obj
 0001:000b5ae0       _hb_dbQSortSwap            004b6ae0 f   DBF:hbdbsort.obj
 0001:000b5c02       _hb_dbQSortDo              004b6c02 f   DBF:hbdbsort.obj
 0001:000b612d       _hb_ntxKeyNew              004b712d f   NTX:dbfntx1.obj
 0001:000b6203       _hb_ntxItemType            004b7203 f   NTX:dbfntx1.obj
 0001:000b5f74       _hb_ntxNumToStr            004b6f74 f   NTX:dbfntx1.obj
 0001:000b6020       _hb_ntxStrToNum            004b7020 f   NTX:dbfntx1.obj
 0001:000b659e       _hb_ntxKeyGetItem          004b759e f   NTX:dbfntx1.obj
 0001:000b6325       _hb_ntxKeyPutItem          004b7325 f   NTX:dbfntx1.obj
 0001:000b6a59       _hb_ntxValCompare          004b7a59 f   NTX:dbfntx1.obj
 0001:000b6bb1       _hb_ntxInTopScope          004b7bb1 f   NTX:dbfntx1.obj
 0001:000b6c83       _hb_ntxInBottomScope       004b7c83 f   NTX:dbfntx1.obj
 0001:000b62f5       _hb_ntxItemTypeCmp         004b72f5 f   NTX:dbfntx1.obj
 0001:000b6dad       _hb_ntxTagClearScope       004b7dad f   NTX:dbfntx1.obj
 0001:000b5e60       _hb_ntxErrorRT             004b6e60 f   NTX:dbfntx1.obj
 0001:000b7356       _hb_ntxBlockWrite          004b8356 f   NTX:dbfntx1.obj
 0001:000b7298       _hb_ntxBlockRead           004b8298 f   NTX:dbfntx1.obj
 0001:000b7525       _hb_ntxTagUpdateFlags      004b8525 f   NTX:dbfntx1.obj
 0001:000b76e5       _hb_ntxFreePageBuffer      004b86e5 f   NTX:dbfntx1.obj
 0001:000b7648       _hb_ntxTagHeaderCheck      004b8648 f   NTX:dbfntx1.obj
 0001:000b7819       _hb_ntxPageFind            004b8819 f   NTX:dbfntx1.obj
 0001:000b7889       _hb_ntxPageGetBuffer       004b8889 f   NTX:dbfntx1.obj
 0001:000b7b61       _hb_ntxPageRelease         004b8b61 f   NTX:dbfntx1.obj
 0001:000b7c4d       _hb_ntxPageLoad            004b8c4d f   NTX:dbfntx1.obj
 0001:000b7ddd       _hb_ntxPageInit            004b8ddd f   NTX:dbfntx1.obj
 0001:000b7e5c       _hb_ntxPageAlloc           004b8e5c f   NTX:dbfntx1.obj
 0001:000b7b1a       _hb_ntxPageFree            004b8b1a f   NTX:dbfntx1.obj
 0001:000b740a       _hb_ntxPageSave            004b840a f   NTX:dbfntx1.obj
 0001:000b7ef5       _hb_ntxPageNew             004b8ef5 f   NTX:dbfntx1.obj
 0001:000b8292       _hb_ntxTagFree             004b9292 f   NTX:dbfntx1.obj
 0001:000b809a       _hb_ntxTagNew              004b909a f   NTX:dbfntx1.obj
 0001:000b6850       _hb_ntxGetKeyType          004b7850 f   NTX:dbfntx1.obj
 0001:000b8047       _hb_ntxPageGetFree         004b9047 f   NTX:dbfntx1.obj
 0001:000b88fe       _hb_ntxIndexTagAdd         004b98fe f   NTX:dbfntx1.obj
 0001:000b7fda       _hb_ntxPageAddFree         004b8fda f   NTX:dbfntx1.obj
 0001:000b854e       _hb_ntxTagLoad             004b954e f   NTX:dbfntx1.obj
 0001:000b84b6       _hb_ntxTagAdd              004b94b6 f   NTX:dbfntx1.obj
 0001:000b7478       _hb_ntxDiscardBuffers      004b8478 f   NTX:dbfntx1.obj
 0001:000b8aa4       _hb_ntxIndexTagFind        004b9aa4 f   NTX:dbfntx1.obj
 0001:000b8b10       _hb_ntxTagHeaderSave       004b9b10 f   NTX:dbfntx1.obj
 0001:000b91d3       _hb_ntxIndexHeaderSave     004ba1d3 f   NTX:dbfntx1.obj
 0001:000b9537       _hb_ntxIndexHeaderRead     004ba537 f   NTX:dbfntx1.obj
 0001:000b9799       _hb_ntxIndexFlush          004ba799 f   NTX:dbfntx1.obj
 0001:000b98cf       _hb_ntxIndexLockRead       004ba8cf f   NTX:dbfntx1.obj
 0001:000b9b2f       _hb_ntxIndexUnLockRead     004bab2f f   NTX:dbfntx1.obj
 0001:000b99f5       _hb_ntxIndexLockWrite      004ba9f5 f   NTX:dbfntx1.obj
 0001:000b9c13       _hb_ntxIndexUnLockWrite    004bac13 f   NTX:dbfntx1.obj
 0001:000b9e90       _hb_ntxTagSetPageStack     004bae90 f   NTX:dbfntx1.obj
 0001:000b9f46       _hb_ntxPageTopMove         004baf46 f   NTX:dbfntx1.obj
 0001:000b9e18       _hb_ntxPageGetKey          004bae18 f   NTX:dbfntx1.obj
 0001:000b9fcd       _hb_ntxPageBottomMove      004bafcd f   NTX:dbfntx1.obj
 0001:000ba5b8       _hb_ntxPageKeyFind         004bb5b8 f   NTX:dbfntx1.obj
 0001:000ba7a2       _hb_ntxPageFindRecNo       004bb7a2 f   NTX:dbfntx1.obj
 0001:000ba1c7       _hb_ntxTagNextKey          004bb1c7 f   NTX:dbfntx1.obj
 0001:000ba3d3       _hb_ntxTagPrevKey          004bb3d3 f   NTX:dbfntx1.obj
 0001:000bac1f       _hb_ntxPageKeySet          004bbc1f f   NTX:dbfntx1.obj
 0001:000bad1f       _hb_ntxPageKeyDel          004bbd1f f   NTX:dbfntx1.obj
 0001:000ba7fe       _hb_ntxTagKeyFind          004bb7fe f   NTX:dbfntx1.obj
 0001:000b61ab       _hb_ntxKeyCopy             004b71ab f   NTX:dbfntx1.obj
 0001:000bac7f       _hb_ntxPageKeyAdd          004bbc7f f   NTX:dbfntx1.obj
 0001:000bb261       _hb_ntxBalancePages        004bc261 f   NTX:dbfntx1.obj
 0001:000bada2       _hb_ntxPageSplit           004bbda2 f   NTX:dbfntx1.obj
 0001:000bb100       _hb_ntxPageJoin            004bc100 f   NTX:dbfntx1.obj
 0001:000b6930       _hb_ntxEvalKey             004b7930 f   NTX:dbfntx1.obj
 0001:000b6d55       _hb_ntxKeyInScope          004b7d55 f   NTX:dbfntx1.obj
 0001:000b724e       _hb_ntxCheckRecordScope    004b824e f   NTX:dbfntx1.obj
 0001:000ba125       _hb_ntxTagBottomKey        004bb125 f   NTX:dbfntx1.obj
 0001:000ba094       _hb_ntxTagTopKey           004bb094 f   NTX:dbfntx1.obj
 0001:000bc4c4       _hb_ntxTagSkipFilter       004bd4c4 f   NTX:dbfntx1.obj
 0001:000bc634       _hb_ntxTagGoTop            004bd634 f   NTX:dbfntx1.obj
 0001:000bc73c       _hb_ntxTagGoBottom         004bd73c f   NTX:dbfntx1.obj
 0001:000bca90       _hb_ntxPageCountKeys       004bda90 f   NTX:dbfntx1.obj
 0001:000bce1f       _hb_ntxTagPagesFree        004bde1f f   NTX:dbfntx1.obj
 0001:000b89ef       _hb_ntxIndexTagDel         004b99ef f   NTX:dbfntx1.obj
 0001:000b83cb       _hb_ntxTagDelete           004b93cb f   NTX:dbfntx1.obj
 0001:000bd27b       _hb_ntxFindBag             004be27b f   NTX:dbfntx1.obj
 0001:000bd3cb       _hb_ntxFindTagByName       004be3cb f   NTX:dbfntx1.obj
 0001:000b9cea       _hb_ntxTagLockRead         004bacea f   NTX:dbfntx1.obj
 0001:000b715d       _hb_ntxTagRefreshScope     004b815d f   NTX:dbfntx1.obj
 0001:000bc844       _hb_ntxTagSkipNext         004bd844 f   NTX:dbfntx1.obj
 0001:000b9dea       _hb_ntxTagUnLockRead       004badea f   NTX:dbfntx1.obj
 0001:000bc202       _hb_ntxCurKeyRefresh       004bd202 f   NTX:dbfntx1.obj
 0001:000bc981       _hb_ntxTagSkipPrev         004bd981 f   NTX:dbfntx1.obj
 0001:000bcb3b       _hb_ntxTagCountRelKeyPos   004bdb3b f   NTX:dbfntx1.obj
 0001:000bcc3a       _hb_ntxTagGoToRelKeyPos    004bdc3a f   NTX:dbfntx1.obj
 0001:000b67d2       _hb_ntxEvalSeekCond        004b77d2 f   NTX:dbfntx1.obj
 0001:000bed54       _hb_ntxRegexMatch          004bfd54 f   NTX:dbfntx1.obj
 0001:000b6752       _hb_ntxEvalCond            004b7752 f   NTX:dbfntx1.obj
 0001:000b9d69       _hb_ntxTagLockWrite        004bad69 f   NTX:dbfntx1.obj
 0001:000bb62b       _hb_ntxTagKeyAdd           004bc62b f   NTX:dbfntx1.obj
 0001:000b9e01       _hb_ntxTagUnLockWrite      004bae01 f   NTX:dbfntx1.obj
 0001:000bbd0d       _hb_ntxTagKeyDel           004bcd0d f   NTX:dbfntx1.obj
 0001:000b7088       _hb_ntxTagGetScope         004b8088 f   NTX:dbfntx1.obj
 0001:000b6eb4       _hb_ntxTagSetScope         004b7eb4 f   NTX:dbfntx1.obj
 0001:000bf7de       _hb_ntxQSort               004c07de f   NTX:dbfntx1.obj
 0001:000bf74a       _hb_ntxQuickSortCompare    004c074a f   NTX:dbfntx1.obj
 0001:000bfa0e       _hb_ntxSortBufferFlush     004c0a0e f   NTX:dbfntx1.obj
 0001:000bfaf7       _hb_ntxSortStorePage       004c0af7 f   NTX:dbfntx1.obj
 0001:000bf9ac       _hb_ntxSortSortPage        004c09ac f   NTX:dbfntx1.obj
 0001:000bff69       _hb_ntxSortGetPageKey      004c0f69 f   NTX:dbfntx1.obj
 0001:000bfdad       _hb_ntxSortWritePage       004c0dad f   NTX:dbfntx1.obj
 0001:000c0149       _hb_ntxSortOrderPages      004c1149 f   NTX:dbfntx1.obj
 0001:000c0335       _hb_ntxSortKeyGet          004c1335 f   NTX:dbfntx1.obj
 0001:000bfc72       _hb_ntxSortAddNodeKey      004c0c72 f   NTX:dbfntx1.obj
 0001:000c0963       _hb_ntxSortFree            004c1963 f   NTX:dbfntx1.obj
 0001:000c06b3       _hb_ntxSortNew             004c16b3 f   NTX:dbfntx1.obj
 0001:000c05f7       _hb_ntxSortKeyAdd          004c15f7 f   NTX:dbfntx1.obj
 0001:000c0a8d       _hb_ntxSortOut             004c1a8d f   NTX:dbfntx1.obj
 0001:000b7797       _hb_ntxIndexTrunc          004b8797 f   NTX:dbfntx1.obj
 0001:000c0f4b       _hb_ntxTagCreate           004c1f4b f   NTX:dbfntx1.obj
 0001:000b90ac       _hb_ntxIndexFree           004ba0ac f   NTX:dbfntx1.obj
 0001:000bcfb6       _hb_ntxCreateFName         004bdfb6 f   NTX:dbfntx1.obj
 0001:000b9069       _hb_ntxIndexNew            004ba069 f   NTX:dbfntx1.obj
 0001:000b92c8       _hb_ntxIndexLoad           004ba2c8 f   NTX:dbfntx1.obj
 0001:000bd429       _hb_ntxFindTag             004be429 f   NTX:dbfntx1.obj
 0001:000bcf24       _hb_ntxTagSpaceFree        004bdf24 f   NTX:dbfntx1.obj
 0001:000bd690       _hb_ntxFindTagNum          004be690 f   NTX:dbfntx1.obj
 0001:000bd735       _hb_ntxOrdKeyCount         004be735 f   NTX:dbfntx1.obj
 0001:000bda7b       _hb_ntxOrdKeyGoto          004bea7b f   NTX:dbfntx1.obj
 0001:000bd849       _hb_ntxOrdKeyNo            004be849 f   NTX:dbfntx1.obj
 0001:000bddd3       _hb_ntxOrdSetRelKeyPos     004bedd3 f   NTX:dbfntx1.obj
 0001:000bdb8f       _hb_ntxOrdGetRelKeyPos     004beb8f f   NTX:dbfntx1.obj
 0001:000bf178       _hb_ntxOrdKeyAdd           004c0178 f   NTX:dbfntx1.obj
 0001:000bf300       _hb_ntxOrdKeyDel           004c0300 f   NTX:dbfntx1.obj
 0001:000be1ab       _hb_ntxOrdSkipUnique       004bf1ab f   NTX:dbfntx1.obj
 0001:000be490       _hb_ntxOrdSkipEval         004bf490 f   NTX:dbfntx1.obj
 0001:000be7df       _hb_ntxOrdSkipWild         004bf7df f   NTX:dbfntx1.obj
 0001:000bedec       _hb_ntxOrdSkipRegEx        004bfdec f   NTX:dbfntx1.obj
 0001:000bf4cc       _hb_ntxOrdFindRec          004c04cc f   NTX:dbfntx1.obj
 0001:000bf620       _hb_ntxOrdScopeEval        004c0620 f   NTX:dbfntx1.obj
 0001:000c1a49       _hb_ntxReIndex             004c2a49 f   NTX:dbfntx1.obj
 0001:000c6cca       _hb_dbfntxRddInit          004c7cca f   NTX:dbfntx1.obj
 0001:000c1b08       _hb_ntxGoBottom            004c2b08 f   NTX:dbfntx1.obj
 0001:000c1c74       _hb_ntxGoTop               004c2c74 f   NTX:dbfntx1.obj
 0001:000c1de0       _hb_ntxSeek                004c2de0 f   NTX:dbfntx1.obj
 0001:000c222c       _hb_ntxSkipRaw             004c322c f   NTX:dbfntx1.obj
 0001:000c24d8       _hb_ntxFlush               004c34d8 f   NTX:dbfntx1.obj
 0001:000c256e       _hb_ntxGoCold              004c356e f   NTX:dbfntx1.obj
 0001:000c2a45       _hb_ntxGoHot               004c3a45 f   NTX:dbfntx1.obj
 0001:000c2b5d       _hb_ntxClose               004c3b5d f   NTX:dbfntx1.obj
 0001:000c2c3d       _hb_ntxOpen                004c3c3d f   NTX:dbfntx1.obj
 0001:000c2c2b       _hb_ntxStructSize          004c3c2b f   NTX:dbfntx1.obj
 0001:000c2e04       _hb_ntxPack                004c3e04 f   NTX:dbfntx1.obj
 0001:000c2e47       _hb_ntxZap                 004c3e47 f   NTX:dbfntx1.obj
 0001:000c607d       _hb_ntxOrderListAdd        004c707d f   NTX:dbfntx1.obj
 0001:000c642f       _hb_ntxOrderListClear      004c742f f   NTX:dbfntx1.obj
 0001:000c6529       _hb_ntxOrderListDelete     004c7529 f   NTX:dbfntx1.obj
 0001:000c667d       _hb_ntxOrderListFocus      004c767d f   NTX:dbfntx1.obj
 0001:000c6702       _hb_ntxOrderListRebuild    004c7702 f   NTX:dbfntx1.obj
 0001:000c2e8a       _hb_ntxOrderCreate         004c3e8a f   NTX:dbfntx1.obj
 0001:000c40fc       _hb_ntxOrderDestroy        004c50fc f   NTX:dbfntx1.obj
 0001:000c432a       _hb_ntxOrderInfo           004c532a f   NTX:dbfntx1.obj
 0001:000c686a       _hb_ntxCountScope          004c786a f   NTX:dbfntx1.obj
 0001:000c689d       _hb_ntxInit                004c789d f   NTX:dbfntx1.obj
 0001:000c6909       _hb_ntxRddInfo             004c7909 f   NTX:dbfntx1.obj
 0001:000c6d6f       __hb_dbfntx_rdd_init_      004c7d6f f   NTX:dbfntx1.obj
 0001:000c6d2b       _dbfntx1__InitSymbols      004c7d2b f   NTX:dbfntx1.obj
 0001:000c7ea0       _closeall                  004c8ea0 f   crt:fclose.obj
 0001:000c7fc0       _prout                     004c8fc0 f   crt:printf.obj
 0001:000c8030       _prout                     004c9030 f   crt:vfprintf.obj
 0001:000c8520       _prout                     004c9520 f   crt:fprintf.obj
 0001:000c89d0       _prout                     004c99d0 f   crt:sprintf.obj
 0001:000c8a70       _grabhunk                  004c9a70 f   crt:malloc.obj
 0001:000c9ee0       _swap                      004caee0 f   crt:qsort.obj
 0001:000ca110       _med3                      004cb110 f   crt:qsort.obj
 0001:000ca180       _median                    004cb180 f   crt:qsort.obj
 0001:000c9f90       _rot3                      004caf90 f   crt:qsort.obj
 0001:000ca310       _intro_sort                004cb310 f   crt:qsort.obj
 0001:000ca240       _adjust_heap               004cb240 f   crt:qsort.obj
 0001:000ca070       _rotate                    004cb070 f   crt:qsort.obj
 0001:000cad20       _parse_cmdline             004cbd20 f   crt:_setargv.obj
 0001:000cc6e0       _ctrlevent_capture@4       004cd6e0 f   crt:signal.obj
 0001:000d1cb0       _hb_gt_FuncInit            004d2cb0 f   xhb:gtwin.obj
 0001:000cfec0       _hb_gt_win_xSetCursorStyle 004d0ec0 f   xhb:gtwin.obj
 0001:000cfe80       _hb_gt_win_xSetCursorPos   004d0e80 f   xhb:gtwin.obj
 0001:000d01b0       _hb_gt_win_xGetScreenContents 004d11b0 f   xhb:gtwin.obj
 0001:000d0160       _hb_gt_win_CtrlHandler@4   004d1160 f   xhb:gtwin.obj
 0001:000d0250       _hb_gt_win_xInitScreenParam 004d1250 f   xhb:gtwin.obj
 0001:000d09d0       _Handle_Alt_Key            004d19d0 f   xhb:gtwin.obj
 0001:000d0b30       _SpecialHandling           004d1b30 f   xhb:gtwin.obj
 0001:000cfcf0       _hb_gt_win_getKbdState     004d0cf0 f   xhb:gtwin.obj
 0001:000d00a0       _hb_gt_win_xUpdtSet        004d10a0 f   xhb:gtwin.obj
 0001:000cff50       _hb_gt_win_xScreenUpdate   004d0f50 f   xhb:gtwin.obj
 0001:000d03d0       _hb_gt_win_Init            004d13d0 f   xhb:gtwin.obj
 0001:000d06e0       _hb_gt_win_Exit            004d16e0 f   xhb:gtwin.obj
 0001:000d07a0       _hb_gt_win_SetMode         004d17a0 f   xhb:gtwin.obj
 0001:000d1b30       _hb_gt_win_Redraw          004d2b30 f   xhb:gtwin.obj
 0001:000d1c20       _hb_gt_win_Refresh         004d2c20 f   xhb:gtwin.obj
 0001:000d08c0       _hb_gt_win_Version         004d18c0 f   xhb:gtwin.obj
 0001:000d08e0       _hb_gt_win_PostExt         004d18e0 f   xhb:gtwin.obj
 0001:000d0910       _hb_gt_win_Suspend         004d1910 f   xhb:gtwin.obj
 0001:000d0960       _hb_gt_win_Resume          004d1960 f   xhb:gtwin.obj
 0001:000d1480       _hb_gt_win_Tone            004d2480 f   xhb:gtwin.obj
 0001:000d1660       _hb_gt_win_Info            004d2660 f   xhb:gtwin.obj
 0001:000d14a0       _hb_gt_win_SetDispCP       004d24a0 f   xhb:gtwin.obj
 0001:000d1590       _hb_gt_win_SetKeyCP        004d2590 f   xhb:gtwin.obj
 0001:000d0d80       _hb_gt_win_ReadKey         004d1d80 f   xhb:gtwin.obj
 0001:000d1a50       _hb_gt_win_mouse_IsPresent 004d2a50 f   xhb:gtwin.obj
 0001:000d1a60       _hb_gt_win_mouse_GetPos    004d2a60 f   xhb:gtwin.obj
 0001:000d1a80       _hb_gt_win_mouse_ButtonState 004d2a80 f   xhb:gtwin.obj
 0001:000d1b10       _hb_gt_win_mouse_CountButton 004d2b10 f   xhb:gtwin.obj
 0001:000d1de0       __hb_startup_gt_Init_      004d2de0 f   xhb:gtwin.obj
 0001:000d2000       _hb_Outp9x                 004d3000 f   xhb:gttone.obj
 0001:000d1fe0       _hb_Inp9x                  004d2fe0 f   xhb:gttone.obj
 0001:000d2120       _hb_gt_wNtTone             004d3120 f   xhb:gttone.obj
 0001:000d2020       _hb_gt_w9xTone             004d3020 f   xhb:gttone.obj
